
Ping Pong_6_2.elf:     file format elf32-avr

Sections:
Idx Name          Size      VMA       LMA       File off  Algn
  0 .data         000000ba  00800100  0000176e  00001802  2**0
                  CONTENTS, ALLOC, LOAD, DATA
  1 .text         0000176e  00000000  00000000  00000094  2**1
                  CONTENTS, ALLOC, LOAD, READONLY, CODE
  2 .bss          0000000e  008001ba  008001ba  000018bc  2**0
                  ALLOC
  3 .comment      0000005c  00000000  00000000  000018bc  2**0
                  CONTENTS, READONLY
  4 .debug_aranges 00000278  00000000  00000000  00001918  2**0
                  CONTENTS, READONLY, DEBUGGING
  5 .debug_info   00002da5  00000000  00000000  00001b90  2**0
                  CONTENTS, READONLY, DEBUGGING
  6 .debug_abbrev 000010c5  00000000  00000000  00004935  2**0
                  CONTENTS, READONLY, DEBUGGING
  7 .debug_line   000025a6  00000000  00000000  000059fa  2**0
                  CONTENTS, READONLY, DEBUGGING
  8 .debug_frame  000005f0  00000000  00000000  00007fa0  2**2
                  CONTENTS, READONLY, DEBUGGING
  9 .debug_str    00009484  00000000  00000000  00008590  2**0
                  CONTENTS, READONLY, DEBUGGING
 10 .debug_loc    00001585  00000000  00000000  00011a14  2**0
                  CONTENTS, READONLY, DEBUGGING
 11 .debug_ranges 00000248  00000000  00000000  00012f99  2**0
                  CONTENTS, READONLY, DEBUGGING
 12 .debug_macro  00001618  00000000  00000000  000131e1  2**0
                  CONTENTS, READONLY, DEBUGGING

Disassembly of section .text:

00000000 <__vectors>:
       0:	5f c3       	rjmp	.+1726   	; 0x6c0 <__ctors_end>
       2:	00 00       	nop
       4:	79 c3       	rjmp	.+1778   	; 0x6f8 <__bad_interrupt>
       6:	00 00       	nop
       8:	77 c3       	rjmp	.+1774   	; 0x6f8 <__bad_interrupt>
       a:	00 00       	nop
       c:	75 c3       	rjmp	.+1770   	; 0x6f8 <__bad_interrupt>
       e:	00 00       	nop
      10:	73 c3       	rjmp	.+1766   	; 0x6f8 <__bad_interrupt>
      12:	00 00       	nop
      14:	71 c3       	rjmp	.+1762   	; 0x6f8 <__bad_interrupt>
      16:	00 00       	nop
      18:	6f c3       	rjmp	.+1758   	; 0x6f8 <__bad_interrupt>
      1a:	00 00       	nop
      1c:	6d c3       	rjmp	.+1754   	; 0x6f8 <__bad_interrupt>
      1e:	00 00       	nop
      20:	6b c3       	rjmp	.+1750   	; 0x6f8 <__bad_interrupt>
      22:	00 00       	nop
      24:	69 c3       	rjmp	.+1746   	; 0x6f8 <__bad_interrupt>
      26:	00 00       	nop
      28:	67 c3       	rjmp	.+1742   	; 0x6f8 <__bad_interrupt>
      2a:	00 00       	nop
      2c:	65 c3       	rjmp	.+1738   	; 0x6f8 <__bad_interrupt>
      2e:	00 00       	nop
      30:	63 c3       	rjmp	.+1734   	; 0x6f8 <__bad_interrupt>
      32:	00 00       	nop
      34:	61 c3       	rjmp	.+1730   	; 0x6f8 <__bad_interrupt>
      36:	00 00       	nop
      38:	5f c3       	rjmp	.+1726   	; 0x6f8 <__bad_interrupt>
      3a:	00 00       	nop
      3c:	5d c3       	rjmp	.+1722   	; 0x6f8 <__bad_interrupt>
      3e:	00 00       	nop
      40:	5b c3       	rjmp	.+1718   	; 0x6f8 <__bad_interrupt>
      42:	00 00       	nop
      44:	59 c3       	rjmp	.+1714   	; 0x6f8 <__bad_interrupt>
      46:	00 00       	nop
      48:	57 c3       	rjmp	.+1710   	; 0x6f8 <__bad_interrupt>
      4a:	00 00       	nop
      4c:	55 c3       	rjmp	.+1706   	; 0x6f8 <__bad_interrupt>
      4e:	00 00       	nop
      50:	53 c3       	rjmp	.+1702   	; 0x6f8 <__bad_interrupt>
      52:	00 00       	nop
      54:	51 c3       	rjmp	.+1698   	; 0x6f8 <__bad_interrupt>
      56:	00 00       	nop
      58:	4f c3       	rjmp	.+1694   	; 0x6f8 <__bad_interrupt>
      5a:	00 00       	nop
      5c:	4d c3       	rjmp	.+1690   	; 0x6f8 <__bad_interrupt>
      5e:	00 00       	nop
      60:	4b c3       	rjmp	.+1686   	; 0x6f8 <__bad_interrupt>
      62:	00 00       	nop
      64:	49 c3       	rjmp	.+1682   	; 0x6f8 <__bad_interrupt>
      66:	00 00       	nop
      68:	47 c3       	rjmp	.+1678   	; 0x6f8 <__bad_interrupt>
      6a:	00 00       	nop
      6c:	45 c3       	rjmp	.+1674   	; 0x6f8 <__bad_interrupt>
	...

00000070 <__trampolines_end>:
      70:	00 00       	nop
      72:	00 00       	nop
      74:	00 5c       	subi	r16, 0xC0	; 192
      76:	00 00       	nop
      78:	0c 00       	.word	0x000c	; ????
      7a:	0c 00       	.word	0x000c	; ????
      7c:	7c 28       	or	r7, r12
      7e:	7c 28       	or	r7, r12
      80:	58 dc       	rcall	.-1872   	; 0xfffff932 <__eeprom_end+0xff7ef932>
      82:	68 00       	.word	0x0068	; ????
      84:	24 10       	cpse	r2, r4
      86:	48 00       	.word	0x0048	; ????
      88:	28 54       	subi	r18, 0x48	; 72
      8a:	28 40       	sbci	r18, 0x08	; 8
      8c:	00 0c       	add	r0, r0
      8e:	00 00       	nop
      90:	00 78       	andi	r16, 0x80	; 128
      92:	84 00       	.word	0x0084	; ????
      94:	84 78       	andi	r24, 0x84	; 132
      96:	00 00       	nop
      98:	54 38       	cpi	r21, 0x84	; 132
      9a:	54 00       	.word	0x0054	; ????
      9c:	10 7c       	andi	r17, 0xC0	; 192
      9e:	10 00       	.word	0x0010	; ????
      a0:	80 40       	sbci	r24, 0x00	; 0
      a2:	00 00       	nop
      a4:	10 10       	cpse	r1, r0
      a6:	10 00       	.word	0x0010	; ????
      a8:	00 40       	sbci	r16, 0x00	; 0
      aa:	00 00       	nop
      ac:	60 10       	cpse	r6, r0
      ae:	0c 00       	.word	0x000c	; ????
      b0:	38 54       	subi	r19, 0x48	; 72
      b2:	38 00       	.word	0x0038	; ????
      b4:	48 7c       	andi	r20, 0xC8	; 200
      b6:	40 00       	.word	0x0040	; ????
      b8:	48 64       	ori	r20, 0x48	; 72
      ba:	58 00       	.word	0x0058	; ????
      bc:	44 54       	subi	r20, 0x44	; 68
      be:	2c 00       	.word	0x002c	; ????
      c0:	1c 10       	cpse	r1, r12
      c2:	7c 00       	.word	0x007c	; ????
      c4:	5c 54       	subi	r21, 0x4C	; 76
      c6:	24 00       	.word	0x0024	; ????
      c8:	38 54       	subi	r19, 0x48	; 72
      ca:	24 00       	.word	0x0024	; ????
      cc:	64 14       	cp	r6, r4
      ce:	0c 00       	.word	0x000c	; ????
      d0:	68 54       	subi	r22, 0x48	; 72
      d2:	2c 00       	.word	0x002c	; ????
      d4:	48 54       	subi	r20, 0x48	; 72
      d6:	38 00       	.word	0x0038	; ????
      d8:	00 48       	sbci	r16, 0x80	; 128
      da:	00 00       	nop
      dc:	80 48       	sbci	r24, 0x80	; 128
      de:	00 00       	nop
      e0:	10 28       	or	r1, r0
      e2:	44 00       	.word	0x0044	; ????
      e4:	28 28       	or	r2, r8
      e6:	28 00       	.word	0x0028	; ????
      e8:	44 28       	or	r4, r4
      ea:	10 00       	.word	0x0010	; ????
      ec:	04 54       	subi	r16, 0x44	; 68
      ee:	08 00       	.word	0x0008	; ????
      f0:	38 44       	sbci	r19, 0x48	; 72
      f2:	5c 00       	.word	0x005c	; ????
      f4:	78 14       	cp	r7, r8
      f6:	78 00       	.word	0x0078	; ????
      f8:	7c 54       	subi	r23, 0x4C	; 76
      fa:	28 00       	.word	0x0028	; ????
      fc:	38 44       	sbci	r19, 0x48	; 72
      fe:	28 00       	.word	0x0028	; ????
     100:	7c 44       	sbci	r23, 0x4C	; 76
     102:	38 00       	.word	0x0038	; ????
     104:	7c 54       	subi	r23, 0x4C	; 76
     106:	44 00       	.word	0x0044	; ????
     108:	7c 14       	cp	r7, r12
     10a:	04 00       	.word	0x0004	; ????
     10c:	38 44       	sbci	r19, 0x48	; 72
     10e:	74 00       	.word	0x0074	; ????
     110:	7c 10       	cpse	r7, r12
     112:	7c 00       	.word	0x007c	; ????
     114:	44 7c       	andi	r20, 0xC4	; 196
     116:	44 00       	.word	0x0044	; ????
     118:	20 40       	sbci	r18, 0x00	; 0
     11a:	3c 00       	.word	0x003c	; ????
     11c:	7c 10       	cpse	r7, r12
     11e:	6c 00       	.word	0x006c	; ????
     120:	7c 40       	sbci	r23, 0x0C	; 12
     122:	40 00       	.word	0x0040	; ????
     124:	7c 18       	sub	r7, r12
     126:	7c 00       	.word	0x007c	; ????
     128:	78 10       	cpse	r7, r8
     12a:	3c 00       	.word	0x003c	; ????
     12c:	38 44       	sbci	r19, 0x48	; 72
     12e:	38 00       	.word	0x0038	; ????
     130:	7c 14       	cp	r7, r12
     132:	08 00       	.word	0x0008	; ????
     134:	38 44       	sbci	r19, 0x48	; 72
     136:	b8 00       	.word	0x00b8	; ????
     138:	7c 14       	cp	r7, r12
     13a:	68 00       	.word	0x0068	; ????
     13c:	48 54       	subi	r20, 0x48	; 72
     13e:	24 00       	.word	0x0024	; ????
     140:	04 7c       	andi	r16, 0xC4	; 196
     142:	04 00       	.word	0x0004	; ????
     144:	7c 40       	sbci	r23, 0x0C	; 12
     146:	7c 00       	.word	0x007c	; ????
     148:	3c 60       	ori	r19, 0x0C	; 12
     14a:	3c 00       	.word	0x003c	; ????
     14c:	7c 30       	cpi	r23, 0x0C	; 12
     14e:	7c 00       	.word	0x007c	; ????
     150:	6c 10       	cpse	r6, r12
     152:	6c 00       	.word	0x006c	; ????
     154:	0c 70       	andi	r16, 0x0C	; 12
     156:	0c 00       	.word	0x000c	; ????
     158:	64 54       	subi	r22, 0x44	; 68
     15a:	4c 00       	.word	0x004c	; ????
     15c:	00 7c       	andi	r16, 0xC0	; 192
     15e:	44 00       	.word	0x0044	; ????
     160:	0c 10       	cpse	r0, r12
     162:	60 00       	.word	0x0060	; ????
     164:	44 7c       	andi	r20, 0xC4	; 196
     166:	00 00       	nop
     168:	08 04       	cpc	r0, r8
     16a:	08 00       	.word	0x0008	; ????
     16c:	80 80       	ld	r8, Z
     16e:	80 00       	.word	0x0080	; ????
     170:	00 04       	cpc	r0, r0
     172:	08 00       	.word	0x0008	; ????
     174:	30 48       	sbci	r19, 0x80	; 128
     176:	78 00       	.word	0x0078	; ????
     178:	7c 48       	sbci	r23, 0x8C	; 140
     17a:	30 00       	.word	0x0030	; ????
     17c:	30 48       	sbci	r19, 0x80	; 128
     17e:	48 00       	.word	0x0048	; ????
     180:	30 48       	sbci	r19, 0x80	; 128
     182:	7c 00       	.word	0x007c	; ????
     184:	30 68       	ori	r19, 0x80	; 128
     186:	50 00       	.word	0x0050	; ????
     188:	10 78       	andi	r17, 0x80	; 128
     18a:	14 00       	.word	0x0014	; ????
     18c:	90 a8       	ldd	r9, Z+48	; 0x30
     18e:	78 00       	.word	0x0078	; ????
     190:	7c 08       	sbc	r7, r12
     192:	70 00       	.word	0x0070	; ????
     194:	50 74       	andi	r21, 0x40	; 64
     196:	40 00       	.word	0x0040	; ????
     198:	80 80       	ld	r8, Z
     19a:	74 00       	.word	0x0074	; ????
     19c:	7c 10       	cpse	r7, r12
     19e:	68 00       	.word	0x0068	; ????
     1a0:	44 7c       	andi	r20, 0xC4	; 196
     1a2:	40 00       	.word	0x0040	; ????
     1a4:	78 10       	cpse	r7, r8
     1a6:	78 00       	.word	0x0078	; ????
     1a8:	78 08       	sbc	r7, r8
     1aa:	70 00       	.word	0x0070	; ????
     1ac:	30 48       	sbci	r19, 0x80	; 128
     1ae:	30 00       	.word	0x0030	; ????
     1b0:	f8 28       	or	r15, r8
     1b2:	10 00       	.word	0x0010	; ????
     1b4:	30 48       	sbci	r19, 0x80	; 128
     1b6:	f8 00       	.word	0x00f8	; ????
     1b8:	78 10       	cpse	r7, r8
     1ba:	08 00       	.word	0x0008	; ????
     1bc:	50 58       	subi	r21, 0x80	; 128
     1be:	28 00       	.word	0x0028	; ????
     1c0:	08 3c       	cpi	r16, 0xC8	; 200
     1c2:	48 00       	.word	0x0048	; ????
     1c4:	38 40       	sbci	r19, 0x08	; 8
     1c6:	78 00       	.word	0x0078	; ????
     1c8:	38 40       	sbci	r19, 0x08	; 8
     1ca:	38 00       	.word	0x0038	; ????
     1cc:	78 20       	and	r7, r8
     1ce:	78 00       	.word	0x0078	; ????
     1d0:	48 30       	cpi	r20, 0x08	; 8
     1d2:	48 00       	.word	0x0048	; ????
     1d4:	98 a0       	ldd	r9, Y+32	; 0x20
     1d6:	78 00       	.word	0x0078	; ????
     1d8:	48 68       	ori	r20, 0x88	; 136
     1da:	58 00       	.word	0x0058	; ????
     1dc:	10 78       	andi	r17, 0x80	; 128
     1de:	84 00       	.word	0x0084	; ????
     1e0:	00 7c       	andi	r16, 0xC0	; 192
     1e2:	00 00       	nop
     1e4:	84 78       	andi	r24, 0x84	; 132
     1e6:	10 00       	.word	0x0010	; ????
     1e8:	08 04       	cpc	r0, r8
     1ea:	08 04       	cpc	r0, r8

000001ec <font5>:
     1ec:	00 00 00 00 00 00 00 5f 00 00 00 07 00 07 00 14     ......._........
     1fc:	7f 14 7f 14 24 2a 7f 2a 12 23 13 08 64 62 36 49     ....$*.*.#..db6I
     20c:	55 22 50 00 05 03 00 00 00 1c 22 41 00 00 41 22     U"P......."A..A"
     21c:	1c 00 08 2a 1c 2a 08 08 08 3e 08 08 00 50 30 00     ...*.*...>...P0.
     22c:	00 08 08 08 08 08 00 60 60 00 00 20 10 08 04 02     .......``.. ....
     23c:	3e 51 49 45 3e 00 42 7f 40 00 42 61 51 49 46 21     >QIE>.B.@.BaQIF!
     24c:	41 45 4b 31 18 14 12 7f 10 27 45 45 45 39 3c 4a     AEK1.....'EEE9<J
     25c:	49 49 30 01 71 09 05 03 36 49 49 49 36 06 49 49     II0.q...6III6.II
     26c:	29 1e 00 36 36 00 00 00 56 36 00 00 00 08 14 22     )..66...V6....."
     27c:	41 14 14 14 14 14 41 22 14 08 00 02 01 51 09 06     A.....A".....Q..
     28c:	32 49 79 41 3e 7e 11 11 11 7e 7f 49 49 49 36 3e     2IyA>~...~.III6>
     29c:	41 41 41 22 7f 41 41 22 1c 7f 49 49 49 41 7f 09     AAA".AA"..IIIA..
     2ac:	09 01 01 3e 41 41 51 32 7f 08 08 08 7f 00 41 7f     ...>AAQ2......A.
     2bc:	41 00 20 40 41 3f 01 7f 08 14 22 41 7f 40 40 40     A. @A?...."A.@@@
     2cc:	40 7f 02 04 02 7f 7f 04 08 10 7f 3e 41 41 41 3e     @..........>AAA>
     2dc:	7f 09 09 09 06 3e 41 51 21 5e 7f 09 19 29 46 46     .....>AQ!^...)FF
     2ec:	49 49 49 31 01 01 7f 01 01 3f 40 40 40 3f 1f 20     III1.....?@@@?. 
     2fc:	40 20 1f 7f 20 18 20 7f 63 14 08 14 63 03 04 78     @ .. . .c...c..x
     30c:	04 03 61 51 49 45 43 00 00 7f 41 41 02 04 08 10     ..aQIEC...AA....
     31c:	20 41 41 7f 00 00 04 02 01 02 04 40 40 40 40 40      AA........@@@@@
     32c:	00 01 02 04 00 20 54 54 54 78 7f 48 44 44 38 38     ..... TTTx.HDD88
     33c:	44 44 44 20 38 44 44 48 7f 38 54 54 54 18 08 7e     DDD 8DDH.8TTT..~
     34c:	09 01 02 08 14 54 54 3c 7f 08 04 04 78 00 44 7d     .....TT<....x.D}
     35c:	40 00 20 40 44 3d 00 00 7f 10 28 44 00 41 7f 40     @. @D=....(D.A.@
     36c:	00 7c 04 18 04 78 7c 08 04 04 78 38 44 44 44 38     .|...x|...x8DDD8
     37c:	7c 14 14 14 08 08 14 14 18 7c 7c 08 04 04 08 48     |........||....H
     38c:	54 54 54 20 04 3f 44 40 20 3c 40 40 20 7c 1c 20     TTT .?D@ <@@ |. 
     39c:	40 20 1c 3c 40 30 40 3c 44 28 10 28 44 0c 50 50     @ .<@0@<D(.(D.PP
     3ac:	50 3c 44 64 54 4c 44 00 08 36 41 00 00 00 7f 00     P<DdTLD..6A.....
     3bc:	00 00 41 36 08 00 02 01 03 02 01                    ..A6.......

000003c7 <font8>:
	...
     3cf:	00 06 5f 5f 06 00 00 00 00 07 07 00 07 07 00 00     ..__............
     3df:	14 7f 7f 14 7f 7f 14 00 24 2e 6b 6b 3a 12 00 00     ........$.kk:...
     3ef:	46 66 30 18 0c 66 62 00 30 7a 4f 5d 37 7a 48 00     Ff0..fb.0zO]7zH.
     3ff:	04 07 03 00 00 00 00 00 00 1c 3e 63 41 00 00 00     ..........>cA...
     40f:	00 41 63 3e 1c 00 00 00 08 2a 3e 1c 1c 3e 2a 08     .Ac>.....*>..>*.
     41f:	08 08 3e 3e 08 08 00 00 00 a0 e0 60 00 00 00 00     ..>>.......`....
     42f:	08 08 08 08 08 08 00 00 00 00 60 60 00 00 00 00     ..........``....
     43f:	60 30 18 0c 06 03 01 00 3e 7f 59 4d 7f 3e 00 00     `0......>.YM.>..
     44f:	42 42 7f 7f 40 40 00 00 62 73 59 49 6f 66 00 00     BB..@@..bsYIof..
     45f:	22 63 49 49 7f 36 00 00 18 1c 16 13 7f 7f 10 00     "cII.6..........
     46f:	27 67 45 45 7d 39 00 00 3c 7e 4b 49 79 30 00 00     'gEE}9..<~KIy0..
     47f:	03 63 71 19 0f 07 00 00 36 7f 49 49 7f 36 00 00     .cq.....6.II.6..
     48f:	06 4f 49 69 3f 1e 00 00 00 00 6c 6c 00 00 00 00     .OIi?.....ll....
     49f:	00 a0 ec 6c 00 00 00 00 08 1c 36 63 41 00 00 00     ...l......6cA...
     4af:	14 14 14 14 14 14 00 00 00 41 63 36 1c 08 00 00     .........Ac6....
     4bf:	02 03 51 59 0f 06 00 00 3e 7f 41 5d 5d 1f 1e 00     ..QY....>.A]]...
     4cf:	7c 7e 13 13 7e 7c 00 00 41 7f 7f 49 49 7f 36 00     |~..~|..A..II.6.
     4df:	1c 3e 63 41 41 63 22 00 41 7f 7f 41 63 7f 1c 00     .>cAAc".A..Ac...
     4ef:	41 7f 7f 49 5d 41 63 00 41 7f 7f 49 1d 01 03 00     A..I]Ac.A..I....
     4ff:	1c 3e 63 41 51 73 72 00 7f 7f 08 08 7f 7f 00 00     .>cAQsr.........
     50f:	00 41 7f 7f 41 00 00 00 30 70 40 41 7f 3f 01 00     .A..A...0p@A.?..
     51f:	41 7f 7f 08 1c 77 63 00 41 7f 7f 41 40 60 70 00     A....wc.A..A@`p.
     52f:	7f 7f 06 0c 06 7f 7f 00 7f 7f 06 0c 18 7f 7f 00     ................
     53f:	1c 3e 63 41 63 3e 1c 00 41 7f 7f 49 09 0f 06 00     .>cAc>..A..I....
     54f:	1e 3f 21 71 7f 5e 00 00 41 7f 7f 19 39 6f 46 00     .?!q.^..A...9oF.
     55f:	26 67 4d 59 7b 32 00 00 03 41 7f 7f 41 03 00 00     &gMY{2...A..A...
     56f:	7f 7f 40 40 7f 7f 00 00 1f 3f 60 60 3f 1f 00 00     ..@@.....?``?...
     57f:	7f 7f 30 18 30 7f 7f 00 63 77 1c 08 1c 77 63 00     ..0.0...cw...wc.
     58f:	07 4f 78 78 4f 07 00 00 67 73 59 4d 47 63 71 00     .OxxO...gsYMGcq.
     59f:	00 7f 7f 41 41 00 00 00 01 03 06 0c 18 30 60 00     ...AA........0`.
     5af:	00 41 41 7f 7f 00 00 00 08 0c 06 03 06 0c 08 00     .AA.............
     5bf:	80 80 80 80 80 80 80 80 00 00 03 07 04 00 00 00     ................
     5cf:	20 74 54 54 3c 78 40 00 41 3f 7f 44 44 7c 38 00      tTT<x@.A?.DD|8.
     5df:	38 7c 44 44 6c 28 00 00 30 78 48 49 3f 7f 40 00     8|DDl(..0xHI?.@.
     5ef:	38 7c 54 54 5c 18 00 00 48 7e 7f 49 03 02 00 00     8|TT\...H~.I....
     5ff:	98 bc a4 a4 f8 7c 04 00 41 7f 7f 08 04 7c 78 00     .....|..A....|x.
     60f:	00 44 7d 7d 40 00 00 00 40 c4 84 fd 7d 00 00 00     .D}}@...@...}...
     61f:	41 7f 7f 10 38 6c 44 00 00 41 7f 7f 40 00 00 00     A...8lD..A..@...
     62f:	7c 7c 0c 18 0c 7c 78 00 7c 7c 04 04 7c 78 00 00     ||...|x.||..|x..
     63f:	38 7c 44 44 7c 38 00 00 84 fc f8 a4 24 3c 18 00     8|DD|8......$<..
     64f:	18 3c 24 a4 f8 fc 84 00 44 7c 78 44 1c 18 00 00     .<$.....D|xD....
     65f:	48 5c 54 54 74 24 00 00 00 04 3e 7f 44 24 00 00     H\TTt$....>.D$..
     66f:	3c 7c 40 40 3c 7c 40 00 1c 3c 60 60 3c 1c 00 00     <|@@<|@..<``<...
     67f:	3c 7c 60 30 60 7c 3c 00 44 6c 38 10 38 6c 44 00     <|`0`|<.Dl8.8lD.
     68f:	9c bc a0 a0 fc 7c 00 00 4c 64 74 5c 4c 64 00 00     .....|..Ldt\Ld..
     69f:	08 08 3e 77 41 41 00 00 00 00 00 77 77 00 00 00     ..>wAA.....ww...
     6af:	41 41 77 3e 08 08 00 00 02 03 01 03 02 03 01 00     AAw>............
	...

000006c0 <__ctors_end>:
     6c0:	11 24       	eor	r1, r1
     6c2:	1f be       	out	0x3f, r1	; 63
     6c4:	cf ef       	ldi	r28, 0xFF	; 255
     6c6:	d4 e0       	ldi	r29, 0x04	; 4
     6c8:	de bf       	out	0x3e, r29	; 62
     6ca:	cd bf       	out	0x3d, r28	; 61

000006cc <__do_copy_data>:
     6cc:	11 e0       	ldi	r17, 0x01	; 1
     6ce:	a0 e0       	ldi	r26, 0x00	; 0
     6d0:	b1 e0       	ldi	r27, 0x01	; 1
     6d2:	ee e6       	ldi	r30, 0x6E	; 110
     6d4:	f7 e1       	ldi	r31, 0x17	; 23
     6d6:	02 c0       	rjmp	.+4      	; 0x6dc <__do_copy_data+0x10>
     6d8:	05 90       	lpm	r0, Z+
     6da:	0d 92       	st	X+, r0
     6dc:	aa 3b       	cpi	r26, 0xBA	; 186
     6de:	b1 07       	cpc	r27, r17
     6e0:	d9 f7       	brne	.-10     	; 0x6d8 <__do_copy_data+0xc>

000006e2 <__do_clear_bss>:
     6e2:	21 e0       	ldi	r18, 0x01	; 1
     6e4:	aa eb       	ldi	r26, 0xBA	; 186
     6e6:	b1 e0       	ldi	r27, 0x01	; 1
     6e8:	01 c0       	rjmp	.+2      	; 0x6ec <.do_clear_bss_start>

000006ea <.do_clear_bss_loop>:
     6ea:	1d 92       	st	X+, r1

000006ec <.do_clear_bss_start>:
     6ec:	a8 3c       	cpi	r26, 0xC8	; 200
     6ee:	b2 07       	cpc	r27, r18
     6f0:	e1 f7       	brne	.-8      	; 0x6ea <.do_clear_bss_loop>
     6f2:	ce d3       	rcall	.+1948   	; 0xe90 <main>
     6f4:	0c 94 b5 0b 	jmp	0x176a	; 0x176a <_exit>

000006f8 <__bad_interrupt>:
     6f8:	83 cc       	rjmp	.-1786   	; 0x0 <__vectors>

000006fa <adc_read>:
	else{
		ans = joy_adc_direction;
	}
	//printf("answer % d \n \r \n \r", ans);
	return ans;*/
}
     6fa:	9f ef       	ldi	r25, 0xFF	; 255
     6fc:	98 0f       	add	r25, r24
     6fe:	94 30       	cpi	r25, 0x04	; 4
     700:	58 f4       	brcc	.+22     	; 0x718 <adc_read+0x1e>
     702:	8d 5f       	subi	r24, 0xFD	; 253
     704:	80 93 00 14 	sts	0x1400, r24
     708:	85 e3       	ldi	r24, 0x35	; 53
     70a:	8a 95       	dec	r24
     70c:	f1 f7       	brne	.-4      	; 0x70a <adc_read+0x10>
     70e:	00 00       	nop
     710:	80 91 00 14 	lds	r24, 0x1400
     714:	90 e0       	ldi	r25, 0x00	; 0
     716:	08 95       	ret
     718:	80 e0       	ldi	r24, 0x00	; 0
     71a:	90 e0       	ldi	r25, 0x00	; 0
     71c:	08 95       	ret

0000071e <adc_joystick_direction>:
     71e:	84 e0       	ldi	r24, 0x04	; 4
     720:	80 93 00 14 	sts	0x1400, r24
     724:	85 e3       	ldi	r24, 0x35	; 53
     726:	8a 95       	dec	r24
     728:	f1 f7       	brne	.-4      	; 0x726 <adc_joystick_direction+0x8>
     72a:	00 00       	nop
     72c:	e0 e0       	ldi	r30, 0x00	; 0
     72e:	f4 e1       	ldi	r31, 0x14	; 20
     730:	40 81       	ld	r20, Z
     732:	50 e0       	ldi	r21, 0x00	; 0
     734:	4c 58       	subi	r20, 0x8C	; 140
     736:	51 09       	sbc	r21, r1
     738:	85 e0       	ldi	r24, 0x05	; 5
     73a:	80 83       	st	Z, r24
     73c:	85 e3       	ldi	r24, 0x35	; 53
     73e:	8a 95       	dec	r24
     740:	f1 f7       	brne	.-4      	; 0x73e <adc_joystick_direction+0x20>
     742:	00 00       	nop
     744:	20 91 00 14 	lds	r18, 0x1400
     748:	30 e0       	ldi	r19, 0x00	; 0
     74a:	2c 58       	subi	r18, 0x8C	; 140
     74c:	31 09       	sbc	r19, r1
     74e:	ba 01       	movw	r22, r20
     750:	55 23       	and	r21, r21
     752:	24 f4       	brge	.+8      	; 0x75c <adc_joystick_direction+0x3e>
     754:	66 27       	eor	r22, r22
     756:	77 27       	eor	r23, r23
     758:	64 1b       	sub	r22, r20
     75a:	75 0b       	sbc	r23, r21
     75c:	c9 01       	movw	r24, r18
     75e:	33 23       	and	r19, r19
     760:	24 f4       	brge	.+8      	; 0x76a <adc_joystick_direction+0x4c>
     762:	88 27       	eor	r24, r24
     764:	99 27       	eor	r25, r25
     766:	82 1b       	sub	r24, r18
     768:	93 0b       	sbc	r25, r19
     76a:	68 17       	cp	r22, r24
     76c:	79 07       	cpc	r23, r25
     76e:	44 f4       	brge	.+16     	; 0x780 <adc_joystick_direction+0x62>
     770:	33 23       	and	r19, r19
     772:	8c f0       	brlt	.+34     	; 0x796 <adc_joystick_direction+0x78>
     774:	12 16       	cp	r1, r18
     776:	13 06       	cpc	r1, r19
     778:	8c f0       	brlt	.+34     	; 0x79c <adc_joystick_direction+0x7e>
     77a:	84 e0       	ldi	r24, 0x04	; 4
     77c:	90 e0       	ldi	r25, 0x00	; 0
     77e:	19 c0       	rjmp	.+50     	; 0x7b2 <adc_joystick_direction+0x94>
     780:	86 17       	cp	r24, r22
     782:	97 07       	cpc	r25, r23
     784:	74 f4       	brge	.+28     	; 0x7a2 <adc_joystick_direction+0x84>
     786:	55 23       	and	r21, r21
     788:	7c f0       	brlt	.+30     	; 0x7a8 <adc_joystick_direction+0x8a>
     78a:	14 16       	cp	r1, r20
     78c:	15 06       	cpc	r1, r21
     78e:	7c f0       	brlt	.+30     	; 0x7ae <adc_joystick_direction+0x90>
     790:	84 e0       	ldi	r24, 0x04	; 4
     792:	90 e0       	ldi	r25, 0x00	; 0
     794:	0e c0       	rjmp	.+28     	; 0x7b2 <adc_joystick_direction+0x94>
     796:	83 e0       	ldi	r24, 0x03	; 3
     798:	90 e0       	ldi	r25, 0x00	; 0
     79a:	0b c0       	rjmp	.+22     	; 0x7b2 <adc_joystick_direction+0x94>
     79c:	82 e0       	ldi	r24, 0x02	; 2
     79e:	90 e0       	ldi	r25, 0x00	; 0
     7a0:	08 c0       	rjmp	.+16     	; 0x7b2 <adc_joystick_direction+0x94>
     7a2:	84 e0       	ldi	r24, 0x04	; 4
     7a4:	90 e0       	ldi	r25, 0x00	; 0
     7a6:	05 c0       	rjmp	.+10     	; 0x7b2 <adc_joystick_direction+0x94>
     7a8:	80 e0       	ldi	r24, 0x00	; 0
     7aa:	90 e0       	ldi	r25, 0x00	; 0
     7ac:	02 c0       	rjmp	.+4      	; 0x7b2 <adc_joystick_direction+0x94>
     7ae:	81 e0       	ldi	r24, 0x01	; 1
     7b0:	90 e0       	ldi	r25, 0x00	; 0
     7b2:	43 5e       	subi	r20, 0xE3	; 227
     7b4:	5f 4f       	sbci	r21, 0xFF	; 255
     7b6:	4b 33       	cpi	r20, 0x3B	; 59
     7b8:	51 05       	cpc	r21, r1
     7ba:	38 f4       	brcc	.+14     	; 0x7ca <adc_joystick_direction+0xac>
     7bc:	23 5e       	subi	r18, 0xE3	; 227
     7be:	3f 4f       	sbci	r19, 0xFF	; 255
     7c0:	2b 33       	cpi	r18, 0x3B	; 59
     7c2:	31 05       	cpc	r19, r1
     7c4:	10 f4       	brcc	.+4      	; 0x7ca <adc_joystick_direction+0xac>
     7c6:	84 e0       	ldi	r24, 0x04	; 4
     7c8:	90 e0       	ldi	r25, 0x00	; 0
     7ca:	08 95       	ret

000007cc <get_joy_adc_direction>:

int get_joy_adc_direction(){
	return xmem_read(JOY_DIR_ADDRESS);
     7cc:	80 e0       	ldi	r24, 0x00	; 0
     7ce:	98 e1       	ldi	r25, 0x18	; 24
     7d0:	50 d3       	rcall	.+1696   	; 0xe72 <xmem_read>
}
     7d2:	90 e0       	ldi	r25, 0x00	; 0
     7d4:	08 95       	ret

000007d6 <set_joy_adc_direction>:

void set_joy_adc_direction(int joy_adc_direction){
	xmem_write(joy_adc_direction, JOY_DIR_ADDRESS);
     7d6:	60 e0       	ldi	r22, 0x00	; 0
     7d8:	78 e1       	ldi	r23, 0x18	; 24
     7da:	47 c3       	rjmp	.+1678   	; 0xe6a <xmem_write>
     7dc:	08 95       	ret

000007de <adc_init>:




void adc_init(){
	set_joy_adc_direction(NEUTRAL);
     7de:	84 e0       	ldi	r24, 0x04	; 4
     7e0:	90 e0       	ldi	r25, 0x00	; 0
     7e2:	f9 cf       	rjmp	.-14     	; 0x7d6 <set_joy_adc_direction>
     7e4:	08 95       	ret

000007e6 <adc_joy_pos_changed>:
		ans = NEUTRAL;
	}
	return ans;
}

int adc_joy_pos_changed(){
     7e6:	cf 93       	push	r28
     7e8:	df 93       	push	r29
	int ans = 0;
	int joy_adc_direction = get_joy_adc_direction();
     7ea:	f0 df       	rcall	.-32     	; 0x7cc <get_joy_adc_direction>
     7ec:	ec 01       	movw	r28, r24
	int previous_joy_adc_direction = joy_adc_direction;
	joy_adc_direction = adc_joystick_direction();
     7ee:	97 df       	rcall	.-210    	; 0x71e <adc_joystick_direction>

	
	if(previous_joy_adc_direction == joy_adc_direction){
     7f0:	c8 17       	cp	r28, r24
     7f2:	d9 07       	cpc	r29, r25
     7f4:	19 f4       	brne	.+6      	; 0x7fc <adc_joy_pos_changed+0x16>
		ans = 5;
     7f6:	d5 e0       	ldi	r29, 0x05	; 5
     7f8:	c0 e0       	ldi	r28, 0x00	; 0
     7fa:	02 c0       	rjmp	.+4      	; 0x800 <adc_joy_pos_changed+0x1a>
	}
	else{
		ans = joy_adc_direction;
     7fc:	d8 2f       	mov	r29, r24
     7fe:	c9 2f       	mov	r28, r25
	}
	set_joy_adc_direction(joy_adc_direction);
     800:	ea df       	rcall	.-44     	; 0x7d6 <set_joy_adc_direction>
	return ans;
}
     802:	8d 2f       	mov	r24, r29
     804:	9c 2f       	mov	r25, r28
     806:	df 91       	pop	r29
     808:	cf 91       	pop	r28
     80a:	08 95       	ret

0000080c <can_init>:


// "Main" for using can:

void can_init()
{
     80c:	cf 93       	push	r28
     80e:	df 93       	push	r29
     810:	cd b7       	in	r28, 0x3d	; 61
     812:	de b7       	in	r29, 0x3e	; 62
     814:	2a 97       	sbiw	r28, 0x0a	; 10
     816:	0f b6       	in	r0, 0x3f	; 63
     818:	f8 94       	cli
     81a:	de bf       	out	0x3e, r29	; 62
     81c:	0f be       	out	0x3f, r0	; 63
     81e:	cd bf       	out	0x3d, r28	; 61
	mcp2515_init(); //Init
     820:	ce d0       	rcall	.+412    	; 0x9be <mcp2515_init>
	
	
	mcp2515_write(MCP_RXB0CTRL, MCP_RXBnCTRL_NOFILTER_bm, 1); // Set to no filter
     822:	41 e0       	ldi	r20, 0x01	; 1
     824:	60 e6       	ldi	r22, 0x60	; 96
     826:	80 e6       	ldi	r24, 0x60	; 96
     828:	eb d0       	rcall	.+470    	; 0xa00 <mcp2515_write>
	#else
		//round up by default
		__ticks_dc = (uint32_t)(ceil(fabs(__tmp)));
	#endif

	__builtin_avr_delay_cycles(__ticks_dc);
     82a:	8f ef       	ldi	r24, 0xFF	; 255
     82c:	9f e8       	ldi	r25, 0x8F	; 143
     82e:	01 97       	sbiw	r24, 0x01	; 1
     830:	f1 f7       	brne	.-4      	; 0x82e <can_init+0x22>
     832:	00 c0       	rjmp	.+0      	; 0x834 <can_init+0x28>
     834:	00 00       	nop
	_delay_ms(30);
	
	mcp2515_bit_modify(MCP_CANINTE, 0b00000001, 1); // Enable Interrupt when message is received
     836:	41 e0       	ldi	r20, 0x01	; 1
     838:	61 e0       	ldi	r22, 0x01	; 1
     83a:	8b e2       	ldi	r24, 0x2B	; 43
     83c:	08 d1       	rcall	.+528    	; 0xa4e <mcp2515_bit_modify>
     83e:	8f ef       	ldi	r24, 0xFF	; 255
     840:	9f e8       	ldi	r25, 0x8F	; 143
     842:	01 97       	sbiw	r24, 0x01	; 1
     844:	f1 f7       	brne	.-4      	; 0x842 <can_init+0x36>
     846:	00 c0       	rjmp	.+0      	; 0x848 <can_init+0x3c>
     848:	00 00       	nop
	_delay_ms(30);

	mcp2515_bit_modify(MCP_CANCTRL, MODE_MASK, MODE_NORMAL);//0b11100000 instead of MODE_MASK
     84a:	40 e0       	ldi	r20, 0x00	; 0
     84c:	60 ee       	ldi	r22, 0xE0	; 224
     84e:	8f e0       	ldi	r24, 0x0F	; 15
     850:	fe d0       	rcall	.+508    	; 0xa4e <mcp2515_bit_modify>
     852:	8f ef       	ldi	r24, 0xFF	; 255
     854:	9f e8       	ldi	r25, 0x8F	; 143
     856:	01 97       	sbiw	r24, 0x01	; 1
     858:	f1 f7       	brne	.-4      	; 0x856 <can_init+0x4a>
     85a:	00 c0       	rjmp	.+0      	; 0x85c <can_init+0x50>
     85c:	00 00       	nop
	_delay_ms(30);
	
	uint8_t mode_bits;
	uint8_t data[MAX_CAN_LENGTH];
	mcp2515_read(MCP_CANSTAT, data, MAX_CAN_LENGTH);
     85e:	4a e0       	ldi	r20, 0x0A	; 10
     860:	be 01       	movw	r22, r28
     862:	6f 5f       	subi	r22, 0xFF	; 255
     864:	7f 4f       	sbci	r23, 0xFF	; 255
     866:	8e e0       	ldi	r24, 0x0E	; 14
     868:	ad d0       	rcall	.+346    	; 0x9c4 <mcp2515_read>
	uint8_t val = data[0];
	
	mode_bits = (val & MODE_MASK);
     86a:	89 81       	ldd	r24, Y+1	; 0x01
     86c:	80 7e       	andi	r24, 0xE0	; 224
	if(mode_bits != MODE_NORMAL){
     86e:	99 f0       	breq	.+38     	; 0x896 <can_init+0x8a>
		
		printf("MCP2515 is NOT in correct mode after reset! Its config bits are %x\n", mode_bits);
     870:	1f 92       	push	r1
     872:	8f 93       	push	r24
     874:	86 e0       	ldi	r24, 0x06	; 6
     876:	91 e0       	ldi	r25, 0x01	; 1
     878:	9f 93       	push	r25
     87a:	8f 93       	push	r24
     87c:	7d d3       	rcall	.+1786   	; 0xf78 <printf>
		printf("\n\r");
     87e:	8c e9       	ldi	r24, 0x9C	; 156
     880:	91 e0       	ldi	r25, 0x01	; 1
     882:	9f 93       	push	r25
     884:	8f 93       	push	r24
     886:	78 d3       	rcall	.+1776   	; 0xf78 <printf>
     888:	0f 90       	pop	r0
     88a:	0f 90       	pop	r0
     88c:	0f 90       	pop	r0
     88e:	0f 90       	pop	r0
     890:	0f 90       	pop	r0
     892:	0f 90       	pop	r0
     894:	07 c0       	rjmp	.+14     	; 0x8a4 <can_init+0x98>
	}
	else
	printf("in mode normal \n\r");
     896:	8a e4       	ldi	r24, 0x4A	; 74
     898:	91 e0       	ldi	r25, 0x01	; 1
     89a:	9f 93       	push	r25
     89c:	8f 93       	push	r24
     89e:	6c d3       	rcall	.+1752   	; 0xf78 <printf>
     8a0:	0f 90       	pop	r0
     8a2:	0f 90       	pop	r0
	
}
     8a4:	2a 96       	adiw	r28, 0x0a	; 10
     8a6:	0f b6       	in	r0, 0x3f	; 63
     8a8:	f8 94       	cli
     8aa:	de bf       	out	0x3e, r29	; 62
     8ac:	0f be       	out	0x3f, r0	; 63
     8ae:	cd bf       	out	0x3d, r28	; 61
     8b0:	df 91       	pop	r29
     8b2:	cf 91       	pop	r28
     8b4:	08 95       	ret

000008b6 <can_message_send>:

void can_message_send(struct can_message* msg)
{
     8b6:	1f 93       	push	r17
     8b8:	cf 93       	push	r28
     8ba:	df 93       	push	r29
     8bc:	ec 01       	movw	r28, r24

	mcp2515_write(MCP_TXB0DLC, msg->length, 1);
     8be:	41 e0       	ldi	r20, 0x01	; 1
     8c0:	6a 81       	ldd	r22, Y+2	; 0x02
     8c2:	85 e3       	ldi	r24, 0x35	; 53
     8c4:	9d d0       	rcall	.+314    	; 0xa00 <mcp2515_write>
	mcp2515_write(MCP_TXB0SIDH, msg->id, 1);
     8c6:	41 e0       	ldi	r20, 0x01	; 1
     8c8:	68 81       	ld	r22, Y
     8ca:	81 e3       	ldi	r24, 0x31	; 49
     8cc:	99 d0       	rcall	.+306    	; 0xa00 <mcp2515_write>
	mcp2515_write(MCP_TXB0SIDL, msg->id, 1);
     8ce:	41 e0       	ldi	r20, 0x01	; 1
     8d0:	68 81       	ld	r22, Y
     8d2:	82 e3       	ldi	r24, 0x32	; 50
     8d4:	95 d0       	rcall	.+298    	; 0xa00 <mcp2515_write>
	
	uint8_t i;
	for (i = 0; i < msg->length; i++)
     8d6:	8a 81       	ldd	r24, Y+2	; 0x02
     8d8:	88 23       	and	r24, r24
     8da:	61 f0       	breq	.+24     	; 0x8f4 <can_message_send+0x3e>
     8dc:	10 e0       	ldi	r17, 0x00	; 0
	{
		mcp2515_write(MCP_TXB0D(0), msg->data[i], 1);
     8de:	fe 01       	movw	r30, r28
     8e0:	e1 0f       	add	r30, r17
     8e2:	f1 1d       	adc	r31, r1
     8e4:	41 e0       	ldi	r20, 0x01	; 1
     8e6:	63 81       	ldd	r22, Z+3	; 0x03
     8e8:	86 e3       	ldi	r24, 0x36	; 54
     8ea:	8a d0       	rcall	.+276    	; 0xa00 <mcp2515_write>
	mcp2515_write(MCP_TXB0DLC, msg->length, 1);
	mcp2515_write(MCP_TXB0SIDH, msg->id, 1);
	mcp2515_write(MCP_TXB0SIDL, msg->id, 1);
	
	uint8_t i;
	for (i = 0; i < msg->length; i++)
     8ec:	1f 5f       	subi	r17, 0xFF	; 255
     8ee:	8a 81       	ldd	r24, Y+2	; 0x02
     8f0:	18 17       	cp	r17, r24
     8f2:	a8 f3       	brcs	.-22     	; 0x8de <can_message_send+0x28>
	{
		mcp2515_write(MCP_TXB0D(0), msg->data[i], 1);
	}
	mcp2515_request(MCP_RTS_TX0);
     8f4:	81 e8       	ldi	r24, 0x81	; 129
     8f6:	9b d0       	rcall	.+310    	; 0xa2e <mcp2515_request>
	//Do something...
}
     8f8:	df 91       	pop	r29
     8fa:	cf 91       	pop	r28
     8fc:	1f 91       	pop	r17
     8fe:	08 95       	ret

00000900 <com_actualise_system>:
#include "communication.h"
#include "adc.h"
#include "oled.h"
#include "can_controller.h"

void com_actualise_system(){
     900:	cf 93       	push	r28
     902:	df 93       	push	r29
     904:	cd b7       	in	r28, 0x3d	; 61
     906:	de b7       	in	r29, 0x3e	; 62
     908:	2d 97       	sbiw	r28, 0x0d	; 13
     90a:	0f b6       	in	r0, 0x3f	; 63
     90c:	f8 94       	cli
     90e:	de bf       	out	0x3e, r29	; 62
     910:	0f be       	out	0x3f, r0	; 63
     912:	cd bf       	out	0x3d, r28	; 61
	
	int pin = 1;
	int temp_value = NEUTRAL;
	
	pin = (PINB & 0b0100)>>2;
     914:	26 b3       	in	r18, 0x16	; 22
	
	struct can_message message;
	message.id = 3;
     916:	83 e0       	ldi	r24, 0x03	; 3
     918:	90 e0       	ldi	r25, 0x00	; 0
     91a:	9a 83       	std	Y+2, r25	; 0x02
     91c:	89 83       	std	Y+1, r24	; 0x01
	message.length = 1;
     91e:	81 e0       	ldi	r24, 0x01	; 1
     920:	8b 83       	std	Y+3, r24	; 0x03
	message.data[0] = (uint8_t) 'c';
     922:	83 e6       	ldi	r24, 0x63	; 99
     924:	8c 83       	std	Y+4, r24	; 0x04
	
	if(pin == 0){
     926:	22 fd       	sbrc	r18, 2
     928:	0c c0       	rjmp	.+24     	; 0x942 <com_actualise_system+0x42>
		printf("string number %d selected \n \r", oled_get_joy_pos());
     92a:	b8 d1       	rcall	.+880    	; 0xc9c <oled_get_joy_pos>
     92c:	9f 93       	push	r25
     92e:	8f 93       	push	r24
     930:	8e e6       	ldi	r24, 0x6E	; 110
     932:	91 e0       	ldi	r25, 0x01	; 1
     934:	9f 93       	push	r25
     936:	8f 93       	push	r24
     938:	1f d3       	rcall	.+1598   	; 0xf78 <printf>
     93a:	0f 90       	pop	r0
     93c:	0f 90       	pop	r0
     93e:	0f 90       	pop	r0
     940:	0f 90       	pop	r0
	}
	
	temp_value = adc_joy_pos_changed();
     942:	51 df       	rcall	.-350    	; 0x7e6 <adc_joy_pos_changed>
	
	if(temp_value == UP || temp_value == DOWN)
     944:	9c 01       	movw	r18, r24
     946:	22 50       	subi	r18, 0x02	; 2
     948:	31 09       	sbc	r19, r1
     94a:	22 30       	cpi	r18, 0x02	; 2
     94c:	31 05       	cpc	r19, r1
     94e:	58 f4       	brcc	.+22     	; 0x966 <com_actualise_system+0x66>
	{
		oled_actualise_joy_pos(temp_value);
     950:	15 d2       	rcall	.+1066   	; 0xd7c <oled_actualise_joy_pos>
		oled_display_activity();
     952:	a9 d1       	rcall	.+850    	; 0xca6 <oled_display_activity>
     954:	2f e7       	ldi	r18, 0x7F	; 127
     956:	88 e3       	ldi	r24, 0x38	; 56
     958:	91 e0       	ldi	r25, 0x01	; 1
     95a:	21 50       	subi	r18, 0x01	; 1
     95c:	80 40       	sbci	r24, 0x00	; 0
     95e:	90 40       	sbci	r25, 0x00	; 0
     960:	e1 f7       	brne	.-8      	; 0x95a <com_actualise_system+0x5a>
     962:	00 c0       	rjmp	.+0      	; 0x964 <com_actualise_system+0x64>
     964:	00 00       	nop
		_delay_ms(400);
	}
	
	message.data[0] = adc_read(1);
     966:	81 e0       	ldi	r24, 0x01	; 1
     968:	c8 de       	rcall	.-624    	; 0x6fa <adc_read>
     96a:	8c 83       	std	Y+4, r24	; 0x04
	printf("send message %d \n\r", message.data[0]);
     96c:	99 27       	eor	r25, r25
     96e:	9f 93       	push	r25
     970:	8f 93       	push	r24
     972:	8c e8       	ldi	r24, 0x8C	; 140
     974:	91 e0       	ldi	r25, 0x01	; 1
     976:	9f 93       	push	r25
     978:	8f 93       	push	r24
     97a:	fe d2       	rcall	.+1532   	; 0xf78 <printf>
	can_message_send(&message);
     97c:	ce 01       	movw	r24, r28
     97e:	01 96       	adiw	r24, 0x01	; 1
     980:	9a df       	rcall	.-204    	; 0x8b6 <can_message_send>
     982:	0f 90       	pop	r0
     984:	0f 90       	pop	r0
     986:	0f 90       	pop	r0
     988:	0f 90       	pop	r0
		

}
     98a:	2d 96       	adiw	r28, 0x0d	; 13
     98c:	0f b6       	in	r0, 0x3f	; 63
     98e:	f8 94       	cli
     990:	de bf       	out	0x3e, r29	; 62
     992:	0f be       	out	0x3f, r0	; 63
     994:	cd bf       	out	0x3d, r28	; 61
     996:	df 91       	pop	r29
     998:	cf 91       	pop	r28
     99a:	08 95       	ret

0000099c <mcp2515_reset>:
	 spi_init();
	 mcp2515_reset();
}

void mcp2515_reset()
{
     99c:	cf 93       	push	r28
     99e:	df 93       	push	r29
     9a0:	1f 92       	push	r1
     9a2:	cd b7       	in	r28, 0x3d	; 61
     9a4:	de b7       	in	r29, 0x3e	; 62
	PORTB &= ~(1<<PINB4); // Select CAN-controller
     9a6:	c4 98       	cbi	0x18, 4	; 24
	//SPSR &= ~(1 << SPIF);	
	
	uint8_t reset[] = {MCP_RESET};
     9a8:	80 ec       	ldi	r24, 0xC0	; 192
     9aa:	89 83       	std	Y+1, r24	; 0x01
	spi_write(reset, 1);
     9ac:	61 e0       	ldi	r22, 0x01	; 1
     9ae:	ce 01       	movw	r24, r28
     9b0:	01 96       	adiw	r24, 0x01	; 1
     9b2:	2d d2       	rcall	.+1114   	; 0xe0e <spi_write>
	
	PORTB |= (1<<PINB4); // DeselectCAN-controller
     9b4:	c4 9a       	sbi	0x18, 4	; 24
}
     9b6:	0f 90       	pop	r0
     9b8:	df 91       	pop	r29
     9ba:	cf 91       	pop	r28
     9bc:	08 95       	ret

000009be <mcp2515_init>:
#include "MCP2515_driver.h"


void mcp2515_init() 
{
	 spi_init();
     9be:	fc d1       	rcall	.+1016   	; 0xdb8 <spi_init>
	 mcp2515_reset();
     9c0:	ed cf       	rjmp	.-38     	; 0x99c <mcp2515_reset>
     9c2:	08 95       	ret

000009c4 <mcp2515_read>:
	
	PORTB |= (1<<PINB4); // DeselectCAN-controller
}

void mcp2515_read(uint8_t address, uint8_t result[MAX_CAN_LENGTH], uint8_t data_size)
{	
     9c4:	ff 92       	push	r15
     9c6:	0f 93       	push	r16
     9c8:	1f 93       	push	r17
     9ca:	cf 93       	push	r28
     9cc:	df 93       	push	r29
     9ce:	00 d0       	rcall	.+0      	; 0x9d0 <mcp2515_read+0xc>
     9d0:	cd b7       	in	r28, 0x3d	; 61
     9d2:	de b7       	in	r29, 0x3e	; 62
     9d4:	8b 01       	movw	r16, r22
     9d6:	f4 2e       	mov	r15, r20
	PORTB &= ~(1<<PINB4); // Select CAN-controller
     9d8:	c4 98       	cbi	0x18, 4	; 24
	//SPSR &= ~(1 << SPIF);
	
	uint8_t write[] = {MCP_READ, address};
     9da:	93 e0       	ldi	r25, 0x03	; 3
     9dc:	99 83       	std	Y+1, r25	; 0x01
     9de:	8a 83       	std	Y+2, r24	; 0x02
	spi_write(write, 2); // Send read instruction
     9e0:	62 e0       	ldi	r22, 0x02	; 2
     9e2:	ce 01       	movw	r24, r28
     9e4:	01 96       	adiw	r24, 0x01	; 1
     9e6:	13 d2       	rcall	.+1062   	; 0xe0e <spi_write>
	
	spi_read(result, data_size); // Readresult
     9e8:	6f 2d       	mov	r22, r15
     9ea:	c8 01       	movw	r24, r16
     9ec:	eb d1       	rcall	.+982    	; 0xdc4 <spi_read>
	
	PORTB |= (1<<PINB4); // DeselectCAN-controller
     9ee:	c4 9a       	sbi	0x18, 4	; 24
	
	
}
     9f0:	0f 90       	pop	r0
     9f2:	0f 90       	pop	r0
     9f4:	df 91       	pop	r29
     9f6:	cf 91       	pop	r28
     9f8:	1f 91       	pop	r17
     9fa:	0f 91       	pop	r16
     9fc:	ff 90       	pop	r15
     9fe:	08 95       	ret

00000a00 <mcp2515_write>:

void mcp2515_write(uint8_t address, uint8_t data, uint8_t data_size)
{
     a00:	cf 93       	push	r28
     a02:	df 93       	push	r29
     a04:	00 d0       	rcall	.+0      	; 0xa06 <mcp2515_write+0x6>
     a06:	1f 92       	push	r1
     a08:	cd b7       	in	r28, 0x3d	; 61
     a0a:	de b7       	in	r29, 0x3e	; 62
	PORTB &= ~(1<<PINB4); // Select CAN-controller
     a0c:	c4 98       	cbi	0x18, 4	; 24
	//SPSR &= ~(1 << SPIF);
	
	uint8_t write[] = {MCP_WRITE, address, data};
     a0e:	92 e0       	ldi	r25, 0x02	; 2
     a10:	99 83       	std	Y+1, r25	; 0x01
     a12:	8a 83       	std	Y+2, r24	; 0x02
     a14:	6b 83       	std	Y+3, r22	; 0x03
	spi_write(write, data_size + 2); // Send read instruction
     a16:	62 e0       	ldi	r22, 0x02	; 2
     a18:	64 0f       	add	r22, r20
     a1a:	ce 01       	movw	r24, r28
     a1c:	01 96       	adiw	r24, 0x01	; 1
     a1e:	f7 d1       	rcall	.+1006   	; 0xe0e <spi_write>
	
	PORTB |= (1<<PINB4); // DeselectCAN-controller
     a20:	c4 9a       	sbi	0x18, 4	; 24
		
}
     a22:	0f 90       	pop	r0
     a24:	0f 90       	pop	r0
     a26:	0f 90       	pop	r0
     a28:	df 91       	pop	r29
     a2a:	cf 91       	pop	r28
     a2c:	08 95       	ret

00000a2e <mcp2515_request>:

void mcp2515_request(uint8_t rqs)
{
     a2e:	cf 93       	push	r28
     a30:	df 93       	push	r29
     a32:	1f 92       	push	r1
     a34:	cd b7       	in	r28, 0x3d	; 61
     a36:	de b7       	in	r29, 0x3e	; 62
	PORTB &= ~(1<<PINB4); // Select CAN-controller
     a38:	c4 98       	cbi	0x18, 4	; 24
	//SPSR &= ~(1 << SPIF);		
		
	uint8_t cmd[] = {rqs};
     a3a:	89 83       	std	Y+1, r24	; 0x01
	spi_write(cmd, 1);		
     a3c:	61 e0       	ldi	r22, 0x01	; 1
     a3e:	ce 01       	movw	r24, r28
     a40:	01 96       	adiw	r24, 0x01	; 1
     a42:	e5 d1       	rcall	.+970    	; 0xe0e <spi_write>
	
	PORTB |= (1<<PINB4); // Deselect CAN-controller
     a44:	c4 9a       	sbi	0x18, 4	; 24
}
     a46:	0f 90       	pop	r0
     a48:	df 91       	pop	r29
     a4a:	cf 91       	pop	r28
     a4c:	08 95       	ret

00000a4e <mcp2515_bit_modify>:

// Modify bits in the register / See datasheet 12.10
void mcp2515_bit_modify(uint8_t address, uint8_t mask, uint8_t data) 
{
     a4e:	cf 93       	push	r28
     a50:	df 93       	push	r29
     a52:	00 d0       	rcall	.+0      	; 0xa54 <mcp2515_bit_modify+0x6>
     a54:	00 d0       	rcall	.+0      	; 0xa56 <mcp2515_bit_modify+0x8>
     a56:	cd b7       	in	r28, 0x3d	; 61
     a58:	de b7       	in	r29, 0x3e	; 62
	PORTB &= ~(1<<PINB4); // Select CAN-controller
     a5a:	c4 98       	cbi	0x18, 4	; 24
	//SPSR &= ~(1 << SPIF);	
	
	uint8_t bit_list[] = {MCP_BITMOD, address, mask, data};
     a5c:	95 e0       	ldi	r25, 0x05	; 5
     a5e:	99 83       	std	Y+1, r25	; 0x01
     a60:	8a 83       	std	Y+2, r24	; 0x02
     a62:	6b 83       	std	Y+3, r22	; 0x03
     a64:	4c 83       	std	Y+4, r20	; 0x04
	spi_write(bit_list, 4);	
     a66:	64 e0       	ldi	r22, 0x04	; 4
     a68:	ce 01       	movw	r24, r28
     a6a:	01 96       	adiw	r24, 0x01	; 1
     a6c:	d0 d1       	rcall	.+928    	; 0xe0e <spi_write>
	
	PORTB |= (1<<PINB4); //Deselect CAN-controller
     a6e:	c4 9a       	sbi	0x18, 4	; 24

}
     a70:	0f 90       	pop	r0
     a72:	0f 90       	pop	r0
     a74:	0f 90       	pop	r0
     a76:	0f 90       	pop	r0
     a78:	df 91       	pop	r29
     a7a:	cf 91       	pop	r28
     a7c:	08 95       	ret

00000a7e <oled_columb_range_select>:
int joy_pos;


void oled_write_c(uint8_t data) {
	volatile uint8_t *adress = OLEDC_OFFSET;
	*adress = data;
     a7e:	91 e2       	ldi	r25, 0x21	; 33
     a80:	90 93 00 10 	sts	0x1000, r25
	oled_display_activity();
}

void oled_columb_range_select(uint8_t start, uint8_t end) {
	oled_write_c(OLED_COLUMB_SET);
	if (start < OLED_COLUMBS) {
     a84:	88 23       	and	r24, r24
     a86:	1c f0       	brlt	.+6      	; 0xa8e <oled_columb_range_select+0x10>
int joy_pos;


void oled_write_c(uint8_t data) {
	volatile uint8_t *adress = OLEDC_OFFSET;
	*adress = data;
     a88:	80 93 00 10 	sts	0x1000, r24
     a8c:	03 c0       	rjmp	.+6      	; 0xa94 <oled_columb_range_select+0x16>
     a8e:	8f e7       	ldi	r24, 0x7F	; 127
     a90:	80 93 00 10 	sts	0x1000, r24
		oled_write_c(start);
		} else {
		oled_write_c(OLED_COLUMBS - 1);
	}

	if (end < OLED_COLUMBS) {
     a94:	66 23       	and	r22, r22
     a96:	1c f0       	brlt	.+6      	; 0xa9e <oled_columb_range_select+0x20>
int joy_pos;


void oled_write_c(uint8_t data) {
	volatile uint8_t *adress = OLEDC_OFFSET;
	*adress = data;
     a98:	60 93 00 10 	sts	0x1000, r22
     a9c:	08 95       	ret
     a9e:	8f e7       	ldi	r24, 0x7F	; 127
     aa0:	80 93 00 10 	sts	0x1000, r24
     aa4:	08 95       	ret

00000aa6 <oled_page_select>:
     aa6:	92 e2       	ldi	r25, 0x22	; 34
     aa8:	90 93 00 10 	sts	0x1000, r25
	}
}

void oled_page_select(uint8_t page) {
	oled_write_c(OLED_PAGE_SET);
	if (page < OLED_PAGES) {
     aac:	88 30       	cpi	r24, 0x08	; 8
     aae:	28 f4       	brcc	.+10     	; 0xaba <oled_page_select+0x14>
int joy_pos;


void oled_write_c(uint8_t data) {
	volatile uint8_t *adress = OLEDC_OFFSET;
	*adress = data;
     ab0:	e0 e0       	ldi	r30, 0x00	; 0
     ab2:	f0 e1       	ldi	r31, 0x10	; 16
     ab4:	80 83       	st	Z, r24
     ab6:	80 83       	st	Z, r24
     ab8:	08 95       	ret
     aba:	e0 e0       	ldi	r30, 0x00	; 0
     abc:	f0 e1       	ldi	r31, 0x10	; 16
     abe:	87 e0       	ldi	r24, 0x07	; 7
     ac0:	80 83       	st	Z, r24
     ac2:	80 83       	st	Z, r24
     ac4:	08 95       	ret

00000ac6 <oled_clear_page>:
		oled_write_c(OLED_PAGES - 1);
	}
}

void oled_clear_page(uint8_t page) {
	if (page < OLED_PAGES) {
     ac6:	88 30       	cpi	r24, 0x08	; 8
     ac8:	60 f4       	brcc	.+24     	; 0xae2 <oled_clear_page+0x1c>
		oled_page_select(page);
     aca:	ed df       	rcall	.-38     	; 0xaa6 <oled_page_select>
		oled_columb_range_select(0, OLED_COLUMBS - 1);
     acc:	6f e7       	ldi	r22, 0x7F	; 127
     ace:	80 e0       	ldi	r24, 0x00	; 0
     ad0:	d6 df       	rcall	.-84     	; 0xa7e <oled_columb_range_select>
     ad2:	80 e8       	ldi	r24, 0x80	; 128
     ad4:	90 e0       	ldi	r25, 0x00	; 0
	*adress = data;
}

void oled_write_data(uint8_t data) {
	volatile uint8_t *adress = OLEDD_OFFSET;
	*adress = data;
     ad6:	e0 e0       	ldi	r30, 0x00	; 0
     ad8:	f2 e1       	ldi	r31, 0x12	; 18
     ada:	10 82       	st	Z, r1
     adc:	01 97       	sbiw	r24, 0x01	; 1

void oled_clear_page(uint8_t page) {
	if (page < OLED_PAGES) {
		oled_page_select(page);
		oled_columb_range_select(0, OLED_COLUMBS - 1);
		for (int i = 0; i < OLED_COLUMBS; i++) {
     ade:	00 97       	sbiw	r24, 0x00	; 0
     ae0:	e1 f7       	brne	.-8      	; 0xada <oled_clear_page+0x14>
     ae2:	08 95       	ret

00000ae4 <oled_clear_screen>:
			oled_write_data(0x00);
		}
	}
}

void oled_clear_screen() {
     ae4:	cf 93       	push	r28
     ae6:	c0 e0       	ldi	r28, 0x00	; 0
	for (int i = 0; i < OLED_PAGES; i++) {
		oled_clear_page(i);
     ae8:	8c 2f       	mov	r24, r28
     aea:	ed df       	rcall	.-38     	; 0xac6 <oled_clear_page>
     aec:	cf 5f       	subi	r28, 0xFF	; 255
		}
	}
}

void oled_clear_screen() {
	for (int i = 0; i < OLED_PAGES; i++) {
     aee:	c8 30       	cpi	r28, 0x08	; 8
     af0:	d9 f7       	brne	.-10     	; 0xae8 <oled_clear_screen+0x4>
		oled_clear_page(i);
	}
}
     af2:	cf 91       	pop	r28
     af4:	08 95       	ret

00000af6 <oled_print_char_of_size>:

void oled_print_char_of_size(char letter, uint8_t size) {
	uint8_t char_length = 0;
	unsigned char *letter_bitmap;
	if (size == FONT_SIZE_SMALL) {
     af6:	62 30       	cpi	r22, 0x02	; 2
     af8:	41 f4       	brne	.+16     	; 0xb0a <oled_print_char_of_size+0x14>
		char_length = 4;
		letter_bitmap = font4[letter - ' '];
     afa:	94 e0       	ldi	r25, 0x04	; 4
     afc:	89 02       	muls	r24, r25
     afe:	a0 01       	movw	r20, r0
     b00:	11 24       	eor	r1, r1
     b02:	40 51       	subi	r20, 0x10	; 16
     b04:	50 40       	sbci	r21, 0x00	; 0

void oled_print_char_of_size(char letter, uint8_t size) {
	uint8_t char_length = 0;
	unsigned char *letter_bitmap;
	if (size == FONT_SIZE_SMALL) {
		char_length = 4;
     b06:	24 e0       	ldi	r18, 0x04	; 4
     b08:	25 c0       	rjmp	.+74     	; 0xb54 <oled_print_char_of_size+0x5e>
		letter_bitmap = font4[letter - ' '];
		} else if (size == FONT_SIZE_MEDIUM) {
     b0a:	61 30       	cpi	r22, 0x01	; 1
     b0c:	89 f4       	brne	.+34     	; 0xb30 <oled_print_char_of_size+0x3a>
		char_length = 5;
		letter_bitmap = font5[letter - ' '];
     b0e:	48 2f       	mov	r20, r24
     b10:	55 27       	eor	r21, r21
     b12:	47 fd       	sbrc	r20, 7
     b14:	50 95       	com	r21
     b16:	40 52       	subi	r20, 0x20	; 32
     b18:	51 09       	sbc	r21, r1
     b1a:	ca 01       	movw	r24, r20
     b1c:	88 0f       	add	r24, r24
     b1e:	99 1f       	adc	r25, r25
     b20:	88 0f       	add	r24, r24
     b22:	99 1f       	adc	r25, r25
     b24:	48 0f       	add	r20, r24
     b26:	59 1f       	adc	r21, r25
     b28:	44 51       	subi	r20, 0x14	; 20
     b2a:	5e 4f       	sbci	r21, 0xFE	; 254
	unsigned char *letter_bitmap;
	if (size == FONT_SIZE_SMALL) {
		char_length = 4;
		letter_bitmap = font4[letter - ' '];
		} else if (size == FONT_SIZE_MEDIUM) {
		char_length = 5;
     b2c:	25 e0       	ldi	r18, 0x05	; 5
     b2e:	12 c0       	rjmp	.+36     	; 0xb54 <oled_print_char_of_size+0x5e>
		letter_bitmap = font5[letter - ' '];
		} else {
		char_length = 8;
		letter_bitmap = font8[letter - ' '];
     b30:	98 e0       	ldi	r25, 0x08	; 8
     b32:	89 02       	muls	r24, r25
     b34:	a0 01       	movw	r20, r0
     b36:	11 24       	eor	r1, r1
     b38:	49 53       	subi	r20, 0x39	; 57
     b3a:	5d 4f       	sbci	r21, 0xFD	; 253
		letter_bitmap = font4[letter - ' '];
		} else if (size == FONT_SIZE_MEDIUM) {
		char_length = 5;
		letter_bitmap = font5[letter - ' '];
		} else {
		char_length = 8;
     b3c:	28 e0       	ldi	r18, 0x08	; 8
     b3e:	0a c0       	rjmp	.+20     	; 0xb54 <oled_print_char_of_size+0x5e>
     b40:	fa 01       	movw	r30, r20
     b42:	e8 0f       	add	r30, r24
     b44:	f9 1f       	adc	r31, r25
		letter_bitmap = font8[letter - ' '];
	}
	for (int i = 0; i < char_length; i++) {
      oled_write_data(pgm_read_byte(&(letter_bitmap[i])));
     b46:	e4 91       	lpm	r30, Z
	*adress = data;
}

void oled_write_data(uint8_t data) {
	volatile uint8_t *adress = OLEDD_OFFSET;
	*adress = data;
     b48:	ec 93       	st	X, r30
		letter_bitmap = font5[letter - ' '];
		} else {
		char_length = 8;
		letter_bitmap = font8[letter - ' '];
	}
	for (int i = 0; i < char_length; i++) {
     b4a:	01 96       	adiw	r24, 0x01	; 1
     b4c:	82 17       	cp	r24, r18
     b4e:	93 07       	cpc	r25, r19
     b50:	bc f3       	brlt	.-18     	; 0xb40 <oled_print_char_of_size+0x4a>
     b52:	08 95       	ret
     b54:	30 e0       	ldi	r19, 0x00	; 0
     b56:	80 e0       	ldi	r24, 0x00	; 0
     b58:	90 e0       	ldi	r25, 0x00	; 0
	*adress = data;
}

void oled_write_data(uint8_t data) {
	volatile uint8_t *adress = OLEDD_OFFSET;
	*adress = data;
     b5a:	a0 e0       	ldi	r26, 0x00	; 0
     b5c:	b2 e1       	ldi	r27, 0x12	; 18
     b5e:	f0 cf       	rjmp	.-32     	; 0xb40 <oled_print_char_of_size+0x4a>

00000b60 <oled_print_char_of_size_inverted>:
}

void oled_print_char_of_size_inverted(char letter, uint8_t size) {
	uint8_t char_length = 0;
	unsigned char *letter_bitmap;
	if (size == FONT_SIZE_SMALL) {
     b60:	62 30       	cpi	r22, 0x02	; 2
     b62:	41 f4       	brne	.+16     	; 0xb74 <oled_print_char_of_size_inverted+0x14>
		char_length = 4;
		letter_bitmap = font4[letter - ' '];
     b64:	94 e0       	ldi	r25, 0x04	; 4
     b66:	89 02       	muls	r24, r25
     b68:	a0 01       	movw	r20, r0
     b6a:	11 24       	eor	r1, r1
     b6c:	40 51       	subi	r20, 0x10	; 16
     b6e:	50 40       	sbci	r21, 0x00	; 0

void oled_print_char_of_size_inverted(char letter, uint8_t size) {
	uint8_t char_length = 0;
	unsigned char *letter_bitmap;
	if (size == FONT_SIZE_SMALL) {
		char_length = 4;
     b70:	24 e0       	ldi	r18, 0x04	; 4
     b72:	26 c0       	rjmp	.+76     	; 0xbc0 <oled_print_char_of_size_inverted+0x60>
		letter_bitmap = font4[letter - ' '];
		} else if (size == FONT_SIZE_MEDIUM) {
     b74:	61 30       	cpi	r22, 0x01	; 1
     b76:	89 f4       	brne	.+34     	; 0xb9a <oled_print_char_of_size_inverted+0x3a>
		char_length = 5;
		letter_bitmap = font5[letter - ' '];
     b78:	48 2f       	mov	r20, r24
     b7a:	55 27       	eor	r21, r21
     b7c:	47 fd       	sbrc	r20, 7
     b7e:	50 95       	com	r21
     b80:	40 52       	subi	r20, 0x20	; 32
     b82:	51 09       	sbc	r21, r1
     b84:	ca 01       	movw	r24, r20
     b86:	88 0f       	add	r24, r24
     b88:	99 1f       	adc	r25, r25
     b8a:	88 0f       	add	r24, r24
     b8c:	99 1f       	adc	r25, r25
     b8e:	48 0f       	add	r20, r24
     b90:	59 1f       	adc	r21, r25
     b92:	44 51       	subi	r20, 0x14	; 20
     b94:	5e 4f       	sbci	r21, 0xFE	; 254
	unsigned char *letter_bitmap;
	if (size == FONT_SIZE_SMALL) {
		char_length = 4;
		letter_bitmap = font4[letter - ' '];
		} else if (size == FONT_SIZE_MEDIUM) {
		char_length = 5;
     b96:	25 e0       	ldi	r18, 0x05	; 5
     b98:	13 c0       	rjmp	.+38     	; 0xbc0 <oled_print_char_of_size_inverted+0x60>
		letter_bitmap = font5[letter - ' '];
		} else {
		char_length = 8;
		letter_bitmap = font8[letter - ' '];
     b9a:	98 e0       	ldi	r25, 0x08	; 8
     b9c:	89 02       	muls	r24, r25
     b9e:	a0 01       	movw	r20, r0
     ba0:	11 24       	eor	r1, r1
     ba2:	49 53       	subi	r20, 0x39	; 57
     ba4:	5d 4f       	sbci	r21, 0xFD	; 253
		letter_bitmap = font4[letter - ' '];
		} else if (size == FONT_SIZE_MEDIUM) {
		char_length = 5;
		letter_bitmap = font5[letter - ' '];
		} else {
		char_length = 8;
     ba6:	28 e0       	ldi	r18, 0x08	; 8
     ba8:	0b c0       	rjmp	.+22     	; 0xbc0 <oled_print_char_of_size_inverted+0x60>
     baa:	fa 01       	movw	r30, r20
     bac:	e8 0f       	add	r30, r24
     bae:	f9 1f       	adc	r31, r25
		letter_bitmap = font8[letter - ' '];
	}
	for (int i = 0; i < char_length; i++) {
      oled_write_data(~pgm_read_byte(&(letter_bitmap[i])));
     bb0:	e4 91       	lpm	r30, Z
     bb2:	e0 95       	com	r30
	*adress = data;
}

void oled_write_data(uint8_t data) {
	volatile uint8_t *adress = OLEDD_OFFSET;
	*adress = data;
     bb4:	ec 93       	st	X, r30
		letter_bitmap = font5[letter - ' '];
		} else {
		char_length = 8;
		letter_bitmap = font8[letter - ' '];
	}
	for (int i = 0; i < char_length; i++) {
     bb6:	01 96       	adiw	r24, 0x01	; 1
     bb8:	82 17       	cp	r24, r18
     bba:	93 07       	cpc	r25, r19
     bbc:	b4 f3       	brlt	.-20     	; 0xbaa <oled_print_char_of_size_inverted+0x4a>
     bbe:	08 95       	ret
     bc0:	30 e0       	ldi	r19, 0x00	; 0
     bc2:	80 e0       	ldi	r24, 0x00	; 0
     bc4:	90 e0       	ldi	r25, 0x00	; 0
	*adress = data;
}

void oled_write_data(uint8_t data) {
	volatile uint8_t *adress = OLEDD_OFFSET;
	*adress = data;
     bc6:	a0 e0       	ldi	r26, 0x00	; 0
     bc8:	b2 e1       	ldi	r27, 0x12	; 18
     bca:	ef cf       	rjmp	.-34     	; 0xbaa <oled_print_char_of_size_inverted+0x4a>

00000bcc <oled_print_char>:

uint8_t printf_page = 0;
uint8_t printf_size = 0;

uint8_t oled_print_char(char letter) {
	if (letter == '\n') {
     bcc:	8a 30       	cpi	r24, 0x0A	; 10
     bce:	51 f4       	brne	.+20     	; 0xbe4 <oled_print_char+0x18>
		printf_page += 1;
     bd0:	80 91 bb 01 	lds	r24, 0x01BB
     bd4:	8f 5f       	subi	r24, 0xFF	; 255
     bd6:	80 93 bb 01 	sts	0x01BB, r24
		oled_page_select(printf_page);
     bda:	65 df       	rcall	.-310    	; 0xaa6 <oled_page_select>
		oled_columb_range_select(0, OLED_COLUMBS);
     bdc:	60 e8       	ldi	r22, 0x80	; 128
     bde:	80 e0       	ldi	r24, 0x00	; 0
     be0:	4e df       	rcall	.-356    	; 0xa7e <oled_columb_range_select>
     be2:	03 c0       	rjmp	.+6      	; 0xbea <oled_print_char+0x1e>
		} else {
		oled_print_char_of_size(letter, printf_size);
     be4:	60 91 ba 01 	lds	r22, 0x01BA
     be8:	86 df       	rcall	.-244    	; 0xaf6 <oled_print_char_of_size>
		uint8_t columb_adder = 0;
	}
	return 0;
}
     bea:	80 e0       	ldi	r24, 0x00	; 0
     bec:	08 95       	ret

00000bee <oled_print_char_inverted>:

uint8_t oled_print_char_inverted(char letter) {
	if (letter == '\n') {
     bee:	8a 30       	cpi	r24, 0x0A	; 10
     bf0:	51 f4       	brne	.+20     	; 0xc06 <oled_print_char_inverted+0x18>
		printf_page += 1;
     bf2:	80 91 bb 01 	lds	r24, 0x01BB
     bf6:	8f 5f       	subi	r24, 0xFF	; 255
     bf8:	80 93 bb 01 	sts	0x01BB, r24
		oled_page_select(printf_page);
     bfc:	54 df       	rcall	.-344    	; 0xaa6 <oled_page_select>
		oled_columb_range_select(0, OLED_COLUMBS);
     bfe:	60 e8       	ldi	r22, 0x80	; 128
     c00:	80 e0       	ldi	r24, 0x00	; 0
     c02:	3d df       	rcall	.-390    	; 0xa7e <oled_columb_range_select>
     c04:	03 c0       	rjmp	.+6      	; 0xc0c <oled_print_char_inverted+0x1e>
	} else {
		oled_print_char_of_size_inverted(letter, printf_size);
     c06:	60 91 ba 01 	lds	r22, 0x01BA
     c0a:	aa df       	rcall	.-172    	; 0xb60 <oled_print_char_of_size_inverted>
		uint8_t columb_adder = 0;
	}
	return 0;
}
     c0c:	80 e0       	ldi	r24, 0x00	; 0
     c0e:	08 95       	ret

00000c10 <oled_printf>:

void oled_printf(char text[]){
     c10:	ef 92       	push	r14
     c12:	ff 92       	push	r15
     c14:	0f 93       	push	r16
     c16:	1f 93       	push	r17
     c18:	cf 93       	push	r28
     c1a:	df 93       	push	r29
	int lenght = strlen(text);
     c1c:	fc 01       	movw	r30, r24
     c1e:	01 90       	ld	r0, Z+
     c20:	00 20       	and	r0, r0
     c22:	e9 f7       	brne	.-6      	; 0xc1e <oled_printf+0xe>
     c24:	31 97       	sbiw	r30, 0x01	; 1
     c26:	7f 01       	movw	r14, r30
     c28:	e8 1a       	sub	r14, r24
     c2a:	f9 0a       	sbc	r15, r25
	//printf("size =  %d \r\n", lenght);
	for (int c = 0; c<lenght; c++){
     c2c:	1e 14       	cp	r1, r14
     c2e:	1f 04       	cpc	r1, r15
     c30:	5c f4       	brge	.+22     	; 0xc48 <oled_printf+0x38>
     c32:	8c 01       	movw	r16, r24
     c34:	c0 e0       	ldi	r28, 0x00	; 0
     c36:	d0 e0       	ldi	r29, 0x00	; 0
		//printf("letter =  %d \r\n", c);
		oled_print_char(text[c]);
     c38:	f8 01       	movw	r30, r16
     c3a:	81 91       	ld	r24, Z+
     c3c:	8f 01       	movw	r16, r30
     c3e:	c6 df       	rcall	.-116    	; 0xbcc <oled_print_char>
}

void oled_printf(char text[]){
	int lenght = strlen(text);
	//printf("size =  %d \r\n", lenght);
	for (int c = 0; c<lenght; c++){
     c40:	21 96       	adiw	r28, 0x01	; 1
     c42:	ec 16       	cp	r14, r28
     c44:	fd 06       	cpc	r15, r29
     c46:	c1 f7       	brne	.-16     	; 0xc38 <oled_printf+0x28>
		//printf("letter =  %d \r\n", c);
		oled_print_char(text[c]);
	}
}
     c48:	df 91       	pop	r29
     c4a:	cf 91       	pop	r28
     c4c:	1f 91       	pop	r17
     c4e:	0f 91       	pop	r16
     c50:	ff 90       	pop	r15
     c52:	ef 90       	pop	r14
     c54:	08 95       	ret

00000c56 <oled_printf_inverted>:

void oled_printf_inverted(char text[]){
     c56:	ef 92       	push	r14
     c58:	ff 92       	push	r15
     c5a:	0f 93       	push	r16
     c5c:	1f 93       	push	r17
     c5e:	cf 93       	push	r28
     c60:	df 93       	push	r29
	int lenght = strlen(text);
     c62:	fc 01       	movw	r30, r24
     c64:	01 90       	ld	r0, Z+
     c66:	00 20       	and	r0, r0
     c68:	e9 f7       	brne	.-6      	; 0xc64 <oled_printf_inverted+0xe>
     c6a:	31 97       	sbiw	r30, 0x01	; 1
     c6c:	7f 01       	movw	r14, r30
     c6e:	e8 1a       	sub	r14, r24
     c70:	f9 0a       	sbc	r15, r25
	//printf("size =  %d \r\n", lenght);
	for (int c = 0; c<lenght; c++){
     c72:	1e 14       	cp	r1, r14
     c74:	1f 04       	cpc	r1, r15
     c76:	5c f4       	brge	.+22     	; 0xc8e <oled_printf_inverted+0x38>
     c78:	8c 01       	movw	r16, r24
     c7a:	c0 e0       	ldi	r28, 0x00	; 0
     c7c:	d0 e0       	ldi	r29, 0x00	; 0
		//printf("letter =  %d \r\n", c);
		oled_print_char_inverted(text[c]);
     c7e:	f8 01       	movw	r30, r16
     c80:	81 91       	ld	r24, Z+
     c82:	8f 01       	movw	r16, r30
     c84:	b4 df       	rcall	.-152    	; 0xbee <oled_print_char_inverted>
}

void oled_printf_inverted(char text[]){
	int lenght = strlen(text);
	//printf("size =  %d \r\n", lenght);
	for (int c = 0; c<lenght; c++){
     c86:	21 96       	adiw	r28, 0x01	; 1
     c88:	ec 16       	cp	r14, r28
     c8a:	fd 06       	cpc	r15, r29
     c8c:	c1 f7       	brne	.-16     	; 0xc7e <oled_printf_inverted+0x28>
		//printf("letter =  %d \r\n", c);
		oled_print_char_inverted(text[c]);
	}
}
     c8e:	df 91       	pop	r29
     c90:	cf 91       	pop	r28
     c92:	1f 91       	pop	r17
     c94:	0f 91       	pop	r16
     c96:	ff 90       	pop	r15
     c98:	ef 90       	pop	r14
     c9a:	08 95       	ret

00000c9c <oled_get_joy_pos>:
	oled_set_joy_pos(joy_pos);

}

int oled_get_joy_pos(){
	return xmem_read(JOY_POS_ADDRESS);
     c9c:	82 e0       	ldi	r24, 0x02	; 2
     c9e:	98 e1       	ldi	r25, 0x18	; 24
     ca0:	e8 d0       	rcall	.+464    	; 0xe72 <xmem_read>
}
     ca2:	90 e0       	ldi	r25, 0x00	; 0
     ca4:	08 95       	ret

00000ca6 <oled_display_activity>:
		//printf("letter =  %d \r\n", c);
		oled_print_char_inverted(text[c]);
	}
}

void oled_display_activity(){
     ca6:	cf 93       	push	r28
     ca8:	df 93       	push	r29
	oled_clear_screen();
     caa:	1c df       	rcall	.-456    	; 0xae4 <oled_clear_screen>
	int joy_pos = oled_get_joy_pos();
     cac:	f7 df       	rcall	.-18     	; 0xc9c <oled_get_joy_pos>
     cae:	ec 01       	movw	r28, r24
			oled_printf_inverted(current_activity->oled_string[i]);
		else
			oled_printf(current_activity->oled_string[i]);
	}*/
	
	oled_page_select(1);
     cb0:	81 e0       	ldi	r24, 0x01	; 1
     cb2:	f9 de       	rcall	.-526    	; 0xaa6 <oled_page_select>
	if(joy_pos == 0)
     cb4:	20 97       	sbiw	r28, 0x00	; 0
     cb6:	59 f4       	brne	.+22     	; 0xcce <oled_display_activity+0x28>
		oled_printf_inverted("Spring \n");
     cb8:	8f e9       	ldi	r24, 0x9F	; 159
     cba:	91 e0       	ldi	r25, 0x01	; 1
     cbc:	cc df       	rcall	.-104    	; 0xc56 <oled_printf_inverted>
	else
		oled_printf("Spring \n");
	
	oled_page_select(2);
     cbe:	82 e0       	ldi	r24, 0x02	; 2
     cc0:	f2 de       	rcall	.-540    	; 0xaa6 <oled_page_select>
	if(joy_pos == 1)
		oled_printf_inverted("Summer \n");
	else
		oled_printf("Summer \n");
     cc2:	88 ea       	ldi	r24, 0xA8	; 168
     cc4:	91 e0       	ldi	r25, 0x01	; 1
     cc6:	a4 df       	rcall	.-184    	; 0xc10 <oled_printf>
	
	oled_page_select(3);
     cc8:	83 e0       	ldi	r24, 0x03	; 3
     cca:	ed de       	rcall	.-550    	; 0xaa6 <oled_page_select>
     ccc:	19 c0       	rjmp	.+50     	; 0xd00 <oled_display_activity+0x5a>
	
	oled_page_select(1);
	if(joy_pos == 0)
		oled_printf_inverted("Spring \n");
	else
		oled_printf("Spring \n");
     cce:	8f e9       	ldi	r24, 0x9F	; 159
     cd0:	91 e0       	ldi	r25, 0x01	; 1
     cd2:	9e df       	rcall	.-196    	; 0xc10 <oled_printf>
	
	oled_page_select(2);
     cd4:	82 e0       	ldi	r24, 0x02	; 2
     cd6:	e7 de       	rcall	.-562    	; 0xaa6 <oled_page_select>
	if(joy_pos == 1)
     cd8:	c1 30       	cpi	r28, 0x01	; 1
     cda:	d1 05       	cpc	r29, r1
     cdc:	31 f4       	brne	.+12     	; 0xcea <oled_display_activity+0x44>
		oled_printf_inverted("Summer \n");
     cde:	88 ea       	ldi	r24, 0xA8	; 168
     ce0:	91 e0       	ldi	r25, 0x01	; 1
     ce2:	b9 df       	rcall	.-142    	; 0xc56 <oled_printf_inverted>
	else
		oled_printf("Summer \n");
	
	oled_page_select(3);
     ce4:	83 e0       	ldi	r24, 0x03	; 3
     ce6:	df de       	rcall	.-578    	; 0xaa6 <oled_page_select>
     ce8:	0b c0       	rjmp	.+22     	; 0xd00 <oled_display_activity+0x5a>
	
	oled_page_select(2);
	if(joy_pos == 1)
		oled_printf_inverted("Summer \n");
	else
		oled_printf("Summer \n");
     cea:	88 ea       	ldi	r24, 0xA8	; 168
     cec:	91 e0       	ldi	r25, 0x01	; 1
     cee:	90 df       	rcall	.-224    	; 0xc10 <oled_printf>
	
	oled_page_select(3);
     cf0:	83 e0       	ldi	r24, 0x03	; 3
     cf2:	d9 de       	rcall	.-590    	; 0xaa6 <oled_page_select>
	if(joy_pos == 2)
     cf4:	22 97       	sbiw	r28, 0x02	; 2
     cf6:	21 f4       	brne	.+8      	; 0xd00 <oled_display_activity+0x5a>
		oled_printf_inverted("Return \n");
     cf8:	81 eb       	ldi	r24, 0xB1	; 177
     cfa:	91 e0       	ldi	r25, 0x01	; 1
     cfc:	ac df       	rcall	.-168    	; 0xc56 <oled_printf_inverted>
     cfe:	03 c0       	rjmp	.+6      	; 0xd06 <oled_display_activity+0x60>
	else
		oled_printf("Return \n");
     d00:	81 eb       	ldi	r24, 0xB1	; 177
     d02:	91 e0       	ldi	r25, 0x01	; 1
     d04:	85 df       	rcall	.-246    	; 0xc10 <oled_printf>
}
     d06:	df 91       	pop	r29
     d08:	cf 91       	pop	r28
     d0a:	08 95       	ret

00000d0c <oled_init>:
int joy_pos;


void oled_write_c(uint8_t data) {
	volatile uint8_t *adress = OLEDC_OFFSET;
	*adress = data;
     d0c:	e0 e0       	ldi	r30, 0x00	; 0
     d0e:	f0 e1       	ldi	r31, 0x10	; 16
     d10:	8e ea       	ldi	r24, 0xAE	; 174
     d12:	80 83       	st	Z, r24
     d14:	81 ea       	ldi	r24, 0xA1	; 161
     d16:	80 83       	st	Z, r24
     d18:	8a ed       	ldi	r24, 0xDA	; 218
     d1a:	80 83       	st	Z, r24
     d1c:	82 e1       	ldi	r24, 0x12	; 18
     d1e:	80 83       	st	Z, r24
     d20:	88 ec       	ldi	r24, 0xC8	; 200
     d22:	80 83       	st	Z, r24
     d24:	88 ea       	ldi	r24, 0xA8	; 168
     d26:	80 83       	st	Z, r24
     d28:	8f e3       	ldi	r24, 0x3F	; 63
     d2a:	80 83       	st	Z, r24
     d2c:	85 ed       	ldi	r24, 0xD5	; 213
     d2e:	80 83       	st	Z, r24
     d30:	80 e8       	ldi	r24, 0x80	; 128
     d32:	80 83       	st	Z, r24
     d34:	81 e8       	ldi	r24, 0x81	; 129
     d36:	80 83       	st	Z, r24
     d38:	80 e5       	ldi	r24, 0x50	; 80
     d3a:	80 83       	st	Z, r24
     d3c:	89 ed       	ldi	r24, 0xD9	; 217
     d3e:	80 83       	st	Z, r24
     d40:	81 e2       	ldi	r24, 0x21	; 33
     d42:	80 83       	st	Z, r24
     d44:	80 e2       	ldi	r24, 0x20	; 32
     d46:	80 83       	st	Z, r24
     d48:	82 e0       	ldi	r24, 0x02	; 2
     d4a:	80 83       	st	Z, r24
     d4c:	8b ed       	ldi	r24, 0xDB	; 219
     d4e:	80 83       	st	Z, r24
     d50:	80 e3       	ldi	r24, 0x30	; 48
     d52:	80 83       	st	Z, r24
     d54:	8d ea       	ldi	r24, 0xAD	; 173
     d56:	80 83       	st	Z, r24
     d58:	10 82       	st	Z, r1
     d5a:	84 ea       	ldi	r24, 0xA4	; 164
     d5c:	80 83       	st	Z, r24
     d5e:	86 ea       	ldi	r24, 0xA6	; 166
     d60:	80 83       	st	Z, r24
     d62:	8f ea       	ldi	r24, 0xAF	; 175
     d64:	80 83       	st	Z, r24
	oled_write_c(0xad);	//master configuration
	oled_write_c(0x00);
	oled_write_c(0xa4);	//out follows RAM content
	oled_write_c(0xa6);	//set normal display
	oled_write_c(0xaf);	//display on
	oled_clear_screen();
     d66:	be de       	rcall	.-644    	; 0xae4 <oled_clear_screen>
	//current_activity = &oled_main;
	joy_pos = 0;
     d68:	10 92 bd 01 	sts	0x01BD, r1
     d6c:	10 92 bc 01 	sts	0x01BC, r1
	oled_display_activity();
     d70:	9a cf       	rjmp	.-204    	; 0xca6 <oled_display_activity>
}
     d72:	08 95       	ret

00000d74 <oled_set_joy_pos>:
int oled_get_joy_pos(){
	return xmem_read(JOY_POS_ADDRESS);
}

void oled_set_joy_pos(int joy_pos){
	xmem_write(joy_pos, JOY_POS_ADDRESS);
     d74:	62 e0       	ldi	r22, 0x02	; 2
     d76:	78 e1       	ldi	r23, 0x18	; 24
     d78:	78 c0       	rjmp	.+240    	; 0xe6a <xmem_write>
     d7a:	08 95       	ret

00000d7c <oled_actualise_joy_pos>:
	else
		oled_printf("Return \n");
}

void oled_actualise_joy_pos(int joy_direction)
{
     d7c:	cf 93       	push	r28
     d7e:	df 93       	push	r29
     d80:	ec 01       	movw	r28, r24
	int joy_pos = oled_get_joy_pos();	
     d82:	8c df       	rcall	.-232    	; 0xc9c <oled_get_joy_pos>
	if(joy_direction == UP)
     d84:	c2 30       	cpi	r28, 0x02	; 2
     d86:	d1 05       	cpc	r29, r1
     d88:	21 f4       	brne	.+8      	; 0xd92 <oled_actualise_joy_pos+0x16>
		if (joy_pos==0){
     d8a:	00 97       	sbiw	r24, 0x00	; 0
     d8c:	61 f0       	breq	.+24     	; 0xda6 <oled_actualise_joy_pos+0x2a>
			joy_pos=2;
		}else{
			joy_pos = (joy_pos - 1);
     d8e:	01 97       	sbiw	r24, 0x01	; 1
     d90:	0f c0       	rjmp	.+30     	; 0xdb0 <oled_actualise_joy_pos+0x34>
		}
	else if(joy_direction == DOWN)
     d92:	23 97       	sbiw	r28, 0x03	; 3
     d94:	69 f4       	brne	.+26     	; 0xdb0 <oled_actualise_joy_pos+0x34>
		if (joy_pos==2){
     d96:	82 30       	cpi	r24, 0x02	; 2
     d98:	91 05       	cpc	r25, r1
     d9a:	41 f0       	breq	.+16     	; 0xdac <oled_actualise_joy_pos+0x30>
			joy_pos=0;
		}else{
			joy_pos = (joy_pos + 1)%3;
     d9c:	01 96       	adiw	r24, 0x01	; 1
     d9e:	63 e0       	ldi	r22, 0x03	; 3
     da0:	70 e0       	ldi	r23, 0x00	; 0
     da2:	79 d0       	rcall	.+242    	; 0xe96 <__divmodhi4>
     da4:	05 c0       	rjmp	.+10     	; 0xdb0 <oled_actualise_joy_pos+0x34>
void oled_actualise_joy_pos(int joy_direction)
{
	int joy_pos = oled_get_joy_pos();	
	if(joy_direction == UP)
		if (joy_pos==0){
			joy_pos=2;
     da6:	82 e0       	ldi	r24, 0x02	; 2
     da8:	90 e0       	ldi	r25, 0x00	; 0
     daa:	02 c0       	rjmp	.+4      	; 0xdb0 <oled_actualise_joy_pos+0x34>
		}else{
			joy_pos = (joy_pos - 1);
		}
	else if(joy_direction == DOWN)
		if (joy_pos==2){
			joy_pos=0;
     dac:	80 e0       	ldi	r24, 0x00	; 0
     dae:	90 e0       	ldi	r25, 0x00	; 0
		}else{
			joy_pos = (joy_pos + 1)%3;
		}
	oled_set_joy_pos(joy_pos);
     db0:	e1 df       	rcall	.-62     	; 0xd74 <oled_set_joy_pos>

}
     db2:	df 91       	pop	r29
     db4:	cf 91       	pop	r28
     db6:	08 95       	ret

00000db8 <spi_init>:
#include "spi.h"

void spi_init() 
{
	/* Set MOSI and SCK and CS output, all others input */
	DDRB = (1 << PB5) | (1 << PB7) | (1 << PB4);
     db8:	80 eb       	ldi	r24, 0xB0	; 176
     dba:	87 bb       	out	0x17, r24	; 23
	PORTB |= (1 << PB4);
     dbc:	c4 9a       	sbi	0x18, 4	; 24
	/* Enable interrupt */

	// SPCR = 1<<SPIE;

	/* Enable SPI, Master, set clock rate fck/16 , SPI mode 0 by default*/
	SPCR = (1 << SPE) | (1 << MSTR) | (1 << SPR0);// | (1<<SPIE)
     dbe:	81 e5       	ldi	r24, 0x51	; 81
     dc0:	8d b9       	out	0x0d, r24	; 13
     dc2:	08 95       	ret

00000dc4 <spi_read>:
}

void spi_read(uint8_t *receive_data, uint8_t data_length) 
{
     dc4:	cf 93       	push	r28
     dc6:	df 93       	push	r29
     dc8:	cd b7       	in	r28, 0x3d	; 61
     dca:	de b7       	in	r29, 0x3e	; 62
     dcc:	2a 97       	sbiw	r28, 0x0a	; 10
     dce:	0f b6       	in	r0, 0x3f	; 63
     dd0:	f8 94       	cli
     dd2:	de bf       	out	0x3e, r29	; 62
     dd4:	0f be       	out	0x3f, r0	; 63
     dd6:	cd bf       	out	0x3d, r28	; 61
	uint8_t dummy_data[MAX_CAN_LENGTH];
	
	for (int i = 0; i < data_length; i++)
     dd8:	66 23       	and	r22, r22
     dda:	81 f0       	breq	.+32     	; 0xdfc <spi_read+0x38>
     ddc:	fe 01       	movw	r30, r28
     dde:	31 96       	adiw	r30, 0x01	; 1
     de0:	a8 2f       	mov	r26, r24
     de2:	b9 2f       	mov	r27, r25
     de4:	cf 01       	movw	r24, r30
     de6:	86 0f       	add	r24, r22
     de8:	91 1d       	adc	r25, r1
	{
		SPDR = dummy_data[i];
     dea:	21 91       	ld	r18, Z+
     dec:	2f b9       	out	0x0f, r18	; 15
		while (!(SPSR & (1 << SPIF)));
     dee:	77 9b       	sbis	0x0e, 7	; 14
     df0:	fe cf       	rjmp	.-4      	; 0xdee <spi_read+0x2a>
		receive_data[i] = SPDR;
     df2:	2f b1       	in	r18, 0x0f	; 15
     df4:	2d 93       	st	X+, r18

void spi_read(uint8_t *receive_data, uint8_t data_length) 
{
	uint8_t dummy_data[MAX_CAN_LENGTH];
	
	for (int i = 0; i < data_length; i++)
     df6:	e8 17       	cp	r30, r24
     df8:	f9 07       	cpc	r31, r25
     dfa:	b9 f7       	brne	.-18     	; 0xdea <spi_read+0x26>
		SPDR = dummy_data[i];
		while (!(SPSR & (1 << SPIF)));
		receive_data[i] = SPDR;
	}
	
}
     dfc:	2a 96       	adiw	r28, 0x0a	; 10
     dfe:	0f b6       	in	r0, 0x3f	; 63
     e00:	f8 94       	cli
     e02:	de bf       	out	0x3e, r29	; 62
     e04:	0f be       	out	0x3f, r0	; 63
     e06:	cd bf       	out	0x3d, r28	; 61
     e08:	df 91       	pop	r29
     e0a:	cf 91       	pop	r28
     e0c:	08 95       	ret

00000e0e <spi_write>:

void spi_write(uint8_t *send_data, uint8_t data_length) 
{
	uint8_t dummy_data[MAX_CAN_LENGTH];
	for (int i = 0; i < data_length; i++)
     e0e:	26 2f       	mov	r18, r22
     e10:	30 e0       	ldi	r19, 0x00	; 0
     e12:	12 16       	cp	r1, r18
     e14:	13 06       	cpc	r1, r19
     e16:	6c f4       	brge	.+26     	; 0xe32 <spi_write+0x24>
     e18:	e8 2f       	mov	r30, r24
     e1a:	f9 2f       	mov	r31, r25
     e1c:	80 e0       	ldi	r24, 0x00	; 0
     e1e:	90 e0       	ldi	r25, 0x00	; 0
	{
		SPDR = send_data[i];
     e20:	41 91       	ld	r20, Z+
     e22:	4f b9       	out	0x0f, r20	; 15
		while (!(SPSR & (1 << SPIF)));
     e24:	77 9b       	sbis	0x0e, 7	; 14
     e26:	fe cf       	rjmp	.-4      	; 0xe24 <spi_write+0x16>
		dummy_data[i] = SPDR;
     e28:	4f b1       	in	r20, 0x0f	; 15
}

void spi_write(uint8_t *send_data, uint8_t data_length) 
{
	uint8_t dummy_data[MAX_CAN_LENGTH];
	for (int i = 0; i < data_length; i++)
     e2a:	01 96       	adiw	r24, 0x01	; 1
     e2c:	82 17       	cp	r24, r18
     e2e:	93 07       	cpc	r25, r19
     e30:	bc f3       	brlt	.-18     	; 0xe20 <spi_write+0x12>
     e32:	08 95       	ret

00000e34 <USART_Transmit>:

//for 5 to 8 Data bits
void USART_Transmit(unsigned char data)
{
	//wait for empty transmit buffer
	while(!(UCSR0A & (1<<UDRE0)));//or UDRE1
     e34:	5d 9b       	sbis	0x0b, 5	; 11
     e36:	fe cf       	rjmp	.-4      	; 0xe34 <USART_Transmit>
	
	//Put data into buffer, sends the data
	UDR0 = data;//or UDR1
     e38:	8c b9       	out	0x0c, r24	; 12
     e3a:	08 95       	ret

00000e3c <USART_Receive>:
}

unsigned char USART_Receive(void)
{
	//Wait for data to be received
	while((UCSR0A & (1<<RXC0)));
     e3c:	5f 99       	sbic	0x0b, 7	; 11
     e3e:	fe cf       	rjmp	.-4      	; 0xe3c <USART_Receive>
	
	//Get and return data from buffer
	return UDR0;//or UDR1
     e40:	8c b1       	in	r24, 0x0c	; 12
}
     e42:	08 95       	ret

00000e44 <USART_Init>:

void USART_Init(unsigned int ubrr)
{
	// Set baud rate
	UBRR0H = (unsigned char) (ubrr>>8);
     e44:	90 bd       	out	0x20, r25	; 32
	UBRR0L = (unsigned char) ubrr;
     e46:	89 b9       	out	0x09, r24	; 9
	
	
	// Enable receiver and transmitter
	UCSR0B = (1<<RXEN0)  | (1<<TXEN0) | (1<<RXCIE0);
     e48:	88 e9       	ldi	r24, 0x98	; 152
     e4a:	8a b9       	out	0x0a, r24	; 10
	
	//Set frame format: 8 data, 2 stop bit
	UCSR0C = (1<<URSEL0) | (1<<USBS0) | (3<<UCSZ00); // or USBS1 or other one
     e4c:	8e e8       	ldi	r24, 0x8E	; 142
     e4e:	80 bd       	out	0x20, r24	; 32
	fdevopen(USART_Transmit, USART_Receive);
     e50:	6e e1       	ldi	r22, 0x1E	; 30
     e52:	77 e0       	ldi	r23, 0x07	; 7
     e54:	8a e1       	ldi	r24, 0x1A	; 26
     e56:	97 e0       	ldi	r25, 0x07	; 7
     e58:	45 c0       	rjmp	.+138    	; 0xee4 <fdevopen>
     e5a:	08 95       	ret

00000e5c <xmem_init>:

#include "xmem.h"
#include "usart.h"

void xmem_init(void){
	MCUCR |= (1<<SRE);
     e5c:	85 b7       	in	r24, 0x35	; 53
     e5e:	80 68       	ori	r24, 0x80	; 128
     e60:	85 bf       	out	0x35, r24	; 53
	SFIOR |= (1<<XMM2);
     e62:	80 b7       	in	r24, 0x30	; 48
     e64:	80 62       	ori	r24, 0x20	; 32
     e66:	80 bf       	out	0x30, r24	; 48
     e68:	08 95       	ret

00000e6a <xmem_write>:
}

void xmem_write(uint8_t data, uint16_t addr){
	volatile char *ext_mem = (char *) BASE_ADDRESS;
	ext_mem[addr] = data;
     e6a:	fb 01       	movw	r30, r22
     e6c:	f0 5f       	subi	r31, 0xF0	; 240
     e6e:	80 83       	st	Z, r24
     e70:	08 95       	ret

00000e72 <xmem_read>:
}

uint8_t xmem_read(uint16_t addr){
	volatile char *ext_mem = (char*) BASE_ADDRESS;
	uint8_t ret_val = ext_mem[addr];
     e72:	90 5f       	subi	r25, 0xF0	; 240
     e74:	fc 01       	movw	r30, r24
     e76:	80 81       	ld	r24, Z
	return ret_val;
}
     e78:	08 95       	ret

00000e7a <global_init>:
#include "can_controller.h"
#include "communication.h"


void global_init(){
	USART_Init(MYUBRR);
     e7a:	8f e1       	ldi	r24, 0x1F	; 31
     e7c:	90 e0       	ldi	r25, 0x00	; 0
     e7e:	e2 df       	rcall	.-60     	; 0xe44 <USART_Init>
	xmem_init();
     e80:	ed df       	rcall	.-38     	; 0xe5c <xmem_init>
	oled_init();
     e82:	44 df       	rcall	.-376    	; 0xd0c <oled_init>
	adc_init();
     e84:	ac dc       	rcall	.-1704   	; 0x7de <adc_init>
	can_init();
     e86:	c2 dc       	rcall	.-1660   	; 0x80c <can_init>
	//SRAM_test();
	
	DDRB &= ~(0b0111);	
     e88:	87 b3       	in	r24, 0x17	; 23
     e8a:	88 7f       	andi	r24, 0xF8	; 248
     e8c:	87 bb       	out	0x17, r24	; 23
     e8e:	08 95       	ret

00000e90 <main>:
}

int main(void){
	
	global_init();
     e90:	f4 df       	rcall	.-24     	; 0xe7a <global_init>
	
	
	int left_s = 0, right_s = 0, x = 0, y = 0;
	
	while(1){	
		com_actualise_system();		
     e92:	36 dd       	rcall	.-1428   	; 0x900 <com_actualise_system>
     e94:	fe cf       	rjmp	.-4      	; 0xe92 <main+0x2>

00000e96 <__divmodhi4>:
     e96:	97 fb       	bst	r25, 7
     e98:	07 2e       	mov	r0, r23
     e9a:	16 f4       	brtc	.+4      	; 0xea0 <__divmodhi4+0xa>
     e9c:	00 94       	com	r0
     e9e:	06 d0       	rcall	.+12     	; 0xeac <__divmodhi4_neg1>
     ea0:	77 fd       	sbrc	r23, 7
     ea2:	08 d0       	rcall	.+16     	; 0xeb4 <__divmodhi4_neg2>
     ea4:	0b d0       	rcall	.+22     	; 0xebc <__udivmodhi4>
     ea6:	07 fc       	sbrc	r0, 7
     ea8:	05 d0       	rcall	.+10     	; 0xeb4 <__divmodhi4_neg2>
     eaa:	3e f4       	brtc	.+14     	; 0xeba <__divmodhi4_exit>

00000eac <__divmodhi4_neg1>:
     eac:	90 95       	com	r25
     eae:	81 95       	neg	r24
     eb0:	9f 4f       	sbci	r25, 0xFF	; 255
     eb2:	08 95       	ret

00000eb4 <__divmodhi4_neg2>:
     eb4:	70 95       	com	r23
     eb6:	61 95       	neg	r22
     eb8:	7f 4f       	sbci	r23, 0xFF	; 255

00000eba <__divmodhi4_exit>:
     eba:	08 95       	ret

00000ebc <__udivmodhi4>:
     ebc:	aa 1b       	sub	r26, r26
     ebe:	bb 1b       	sub	r27, r27
     ec0:	51 e1       	ldi	r21, 0x11	; 17
     ec2:	07 c0       	rjmp	.+14     	; 0xed2 <__udivmodhi4_ep>

00000ec4 <__udivmodhi4_loop>:
     ec4:	aa 1f       	adc	r26, r26
     ec6:	bb 1f       	adc	r27, r27
     ec8:	a6 17       	cp	r26, r22
     eca:	b7 07       	cpc	r27, r23
     ecc:	10 f0       	brcs	.+4      	; 0xed2 <__udivmodhi4_ep>
     ece:	a6 1b       	sub	r26, r22
     ed0:	b7 0b       	sbc	r27, r23

00000ed2 <__udivmodhi4_ep>:
     ed2:	88 1f       	adc	r24, r24
     ed4:	99 1f       	adc	r25, r25
     ed6:	5a 95       	dec	r21
     ed8:	a9 f7       	brne	.-22     	; 0xec4 <__udivmodhi4_loop>
     eda:	80 95       	com	r24
     edc:	90 95       	com	r25
     ede:	bc 01       	movw	r22, r24
     ee0:	cd 01       	movw	r24, r26
     ee2:	08 95       	ret

00000ee4 <fdevopen>:
     ee4:	0f 93       	push	r16
     ee6:	1f 93       	push	r17
     ee8:	cf 93       	push	r28
     eea:	df 93       	push	r29
     eec:	ec 01       	movw	r28, r24
     eee:	8b 01       	movw	r16, r22
     ef0:	00 97       	sbiw	r24, 0x00	; 0
     ef2:	31 f4       	brne	.+12     	; 0xf00 <fdevopen+0x1c>
     ef4:	61 15       	cp	r22, r1
     ef6:	71 05       	cpc	r23, r1
     ef8:	19 f4       	brne	.+6      	; 0xf00 <fdevopen+0x1c>
     efa:	80 e0       	ldi	r24, 0x00	; 0
     efc:	90 e0       	ldi	r25, 0x00	; 0
     efe:	37 c0       	rjmp	.+110    	; 0xf6e <fdevopen+0x8a>
     f00:	6e e0       	ldi	r22, 0x0E	; 14
     f02:	70 e0       	ldi	r23, 0x00	; 0
     f04:	81 e0       	ldi	r24, 0x01	; 1
     f06:	90 e0       	ldi	r25, 0x00	; 0
     f08:	0b d2       	rcall	.+1046   	; 0x1320 <calloc>
     f0a:	fc 01       	movw	r30, r24
     f0c:	00 97       	sbiw	r24, 0x00	; 0
     f0e:	a9 f3       	breq	.-22     	; 0xefa <fdevopen+0x16>
     f10:	80 e8       	ldi	r24, 0x80	; 128
     f12:	83 83       	std	Z+3, r24	; 0x03
     f14:	01 15       	cp	r16, r1
     f16:	11 05       	cpc	r17, r1
     f18:	71 f0       	breq	.+28     	; 0xf36 <fdevopen+0x52>
     f1a:	13 87       	std	Z+11, r17	; 0x0b
     f1c:	02 87       	std	Z+10, r16	; 0x0a
     f1e:	81 e8       	ldi	r24, 0x81	; 129
     f20:	83 83       	std	Z+3, r24	; 0x03
     f22:	80 91 be 01 	lds	r24, 0x01BE
     f26:	90 91 bf 01 	lds	r25, 0x01BF
     f2a:	89 2b       	or	r24, r25
     f2c:	21 f4       	brne	.+8      	; 0xf36 <fdevopen+0x52>
     f2e:	f0 93 bf 01 	sts	0x01BF, r31
     f32:	e0 93 be 01 	sts	0x01BE, r30
     f36:	20 97       	sbiw	r28, 0x00	; 0
     f38:	c9 f0       	breq	.+50     	; 0xf6c <fdevopen+0x88>
     f3a:	d1 87       	std	Z+9, r29	; 0x09
     f3c:	c0 87       	std	Z+8, r28	; 0x08
     f3e:	83 81       	ldd	r24, Z+3	; 0x03
     f40:	82 60       	ori	r24, 0x02	; 2
     f42:	83 83       	std	Z+3, r24	; 0x03
     f44:	80 91 c0 01 	lds	r24, 0x01C0
     f48:	90 91 c1 01 	lds	r25, 0x01C1
     f4c:	89 2b       	or	r24, r25
     f4e:	71 f4       	brne	.+28     	; 0xf6c <fdevopen+0x88>
     f50:	f0 93 c1 01 	sts	0x01C1, r31
     f54:	e0 93 c0 01 	sts	0x01C0, r30
     f58:	80 91 c2 01 	lds	r24, 0x01C2
     f5c:	90 91 c3 01 	lds	r25, 0x01C3
     f60:	89 2b       	or	r24, r25
     f62:	21 f4       	brne	.+8      	; 0xf6c <fdevopen+0x88>
     f64:	f0 93 c3 01 	sts	0x01C3, r31
     f68:	e0 93 c2 01 	sts	0x01C2, r30
     f6c:	cf 01       	movw	r24, r30
     f6e:	df 91       	pop	r29
     f70:	cf 91       	pop	r28
     f72:	1f 91       	pop	r17
     f74:	0f 91       	pop	r16
     f76:	08 95       	ret

00000f78 <printf>:
     f78:	a0 e0       	ldi	r26, 0x00	; 0
     f7a:	b0 e0       	ldi	r27, 0x00	; 0
     f7c:	e1 ec       	ldi	r30, 0xC1	; 193
     f7e:	f7 e0       	ldi	r31, 0x07	; 7
     f80:	cd c3       	rjmp	.+1946   	; 0x171c <__prologue_saves__+0x20>
     f82:	fe 01       	movw	r30, r28
     f84:	35 96       	adiw	r30, 0x05	; 5
     f86:	61 91       	ld	r22, Z+
     f88:	71 91       	ld	r23, Z+
     f8a:	af 01       	movw	r20, r30
     f8c:	80 91 c0 01 	lds	r24, 0x01C0
     f90:	90 91 c1 01 	lds	r25, 0x01C1
     f94:	02 d0       	rcall	.+4      	; 0xf9a <vfprintf>
     f96:	e2 e0       	ldi	r30, 0x02	; 2
     f98:	dd c3       	rjmp	.+1978   	; 0x1754 <__epilogue_restores__+0x20>

00000f9a <vfprintf>:
     f9a:	ac e0       	ldi	r26, 0x0C	; 12
     f9c:	b0 e0       	ldi	r27, 0x00	; 0
     f9e:	e2 ed       	ldi	r30, 0xD2	; 210
     fa0:	f7 e0       	ldi	r31, 0x07	; 7
     fa2:	ac c3       	rjmp	.+1880   	; 0x16fc <__prologue_saves__>
     fa4:	7c 01       	movw	r14, r24
     fa6:	6b 01       	movw	r12, r22
     fa8:	8a 01       	movw	r16, r20
     faa:	fc 01       	movw	r30, r24
     fac:	17 82       	std	Z+7, r1	; 0x07
     fae:	16 82       	std	Z+6, r1	; 0x06
     fb0:	83 81       	ldd	r24, Z+3	; 0x03
     fb2:	81 ff       	sbrs	r24, 1
     fb4:	b0 c1       	rjmp	.+864    	; 0x1316 <vfprintf+0x37c>
     fb6:	ce 01       	movw	r24, r28
     fb8:	01 96       	adiw	r24, 0x01	; 1
     fba:	4c 01       	movw	r8, r24
     fbc:	f7 01       	movw	r30, r14
     fbe:	93 81       	ldd	r25, Z+3	; 0x03
     fc0:	f6 01       	movw	r30, r12
     fc2:	93 fd       	sbrc	r25, 3
     fc4:	85 91       	lpm	r24, Z+
     fc6:	93 ff       	sbrs	r25, 3
     fc8:	81 91       	ld	r24, Z+
     fca:	6f 01       	movw	r12, r30
     fcc:	88 23       	and	r24, r24
     fce:	09 f4       	brne	.+2      	; 0xfd2 <vfprintf+0x38>
     fd0:	9e c1       	rjmp	.+828    	; 0x130e <vfprintf+0x374>
     fd2:	85 32       	cpi	r24, 0x25	; 37
     fd4:	39 f4       	brne	.+14     	; 0xfe4 <vfprintf+0x4a>
     fd6:	93 fd       	sbrc	r25, 3
     fd8:	85 91       	lpm	r24, Z+
     fda:	93 ff       	sbrs	r25, 3
     fdc:	81 91       	ld	r24, Z+
     fde:	6f 01       	movw	r12, r30
     fe0:	85 32       	cpi	r24, 0x25	; 37
     fe2:	21 f4       	brne	.+8      	; 0xfec <vfprintf+0x52>
     fe4:	b7 01       	movw	r22, r14
     fe6:	90 e0       	ldi	r25, 0x00	; 0
     fe8:	f9 d2       	rcall	.+1522   	; 0x15dc <fputc>
     fea:	e8 cf       	rjmp	.-48     	; 0xfbc <vfprintf+0x22>
     fec:	51 2c       	mov	r5, r1
     fee:	31 2c       	mov	r3, r1
     ff0:	20 e0       	ldi	r18, 0x00	; 0
     ff2:	20 32       	cpi	r18, 0x20	; 32
     ff4:	a0 f4       	brcc	.+40     	; 0x101e <vfprintf+0x84>
     ff6:	8b 32       	cpi	r24, 0x2B	; 43
     ff8:	69 f0       	breq	.+26     	; 0x1014 <vfprintf+0x7a>
     ffa:	30 f4       	brcc	.+12     	; 0x1008 <vfprintf+0x6e>
     ffc:	80 32       	cpi	r24, 0x20	; 32
     ffe:	59 f0       	breq	.+22     	; 0x1016 <vfprintf+0x7c>
    1000:	83 32       	cpi	r24, 0x23	; 35
    1002:	69 f4       	brne	.+26     	; 0x101e <vfprintf+0x84>
    1004:	20 61       	ori	r18, 0x10	; 16
    1006:	2c c0       	rjmp	.+88     	; 0x1060 <vfprintf+0xc6>
    1008:	8d 32       	cpi	r24, 0x2D	; 45
    100a:	39 f0       	breq	.+14     	; 0x101a <vfprintf+0x80>
    100c:	80 33       	cpi	r24, 0x30	; 48
    100e:	39 f4       	brne	.+14     	; 0x101e <vfprintf+0x84>
    1010:	21 60       	ori	r18, 0x01	; 1
    1012:	26 c0       	rjmp	.+76     	; 0x1060 <vfprintf+0xc6>
    1014:	22 60       	ori	r18, 0x02	; 2
    1016:	24 60       	ori	r18, 0x04	; 4
    1018:	23 c0       	rjmp	.+70     	; 0x1060 <vfprintf+0xc6>
    101a:	28 60       	ori	r18, 0x08	; 8
    101c:	21 c0       	rjmp	.+66     	; 0x1060 <vfprintf+0xc6>
    101e:	27 fd       	sbrc	r18, 7
    1020:	27 c0       	rjmp	.+78     	; 0x1070 <vfprintf+0xd6>
    1022:	30 ed       	ldi	r19, 0xD0	; 208
    1024:	38 0f       	add	r19, r24
    1026:	3a 30       	cpi	r19, 0x0A	; 10
    1028:	78 f4       	brcc	.+30     	; 0x1048 <vfprintf+0xae>
    102a:	26 ff       	sbrs	r18, 6
    102c:	06 c0       	rjmp	.+12     	; 0x103a <vfprintf+0xa0>
    102e:	fa e0       	ldi	r31, 0x0A	; 10
    1030:	5f 9e       	mul	r5, r31
    1032:	30 0d       	add	r19, r0
    1034:	11 24       	eor	r1, r1
    1036:	53 2e       	mov	r5, r19
    1038:	13 c0       	rjmp	.+38     	; 0x1060 <vfprintf+0xc6>
    103a:	8a e0       	ldi	r24, 0x0A	; 10
    103c:	38 9e       	mul	r3, r24
    103e:	30 0d       	add	r19, r0
    1040:	11 24       	eor	r1, r1
    1042:	33 2e       	mov	r3, r19
    1044:	20 62       	ori	r18, 0x20	; 32
    1046:	0c c0       	rjmp	.+24     	; 0x1060 <vfprintf+0xc6>
    1048:	8e 32       	cpi	r24, 0x2E	; 46
    104a:	21 f4       	brne	.+8      	; 0x1054 <vfprintf+0xba>
    104c:	26 fd       	sbrc	r18, 6
    104e:	5f c1       	rjmp	.+702    	; 0x130e <vfprintf+0x374>
    1050:	20 64       	ori	r18, 0x40	; 64
    1052:	06 c0       	rjmp	.+12     	; 0x1060 <vfprintf+0xc6>
    1054:	8c 36       	cpi	r24, 0x6C	; 108
    1056:	11 f4       	brne	.+4      	; 0x105c <vfprintf+0xc2>
    1058:	20 68       	ori	r18, 0x80	; 128
    105a:	02 c0       	rjmp	.+4      	; 0x1060 <vfprintf+0xc6>
    105c:	88 36       	cpi	r24, 0x68	; 104
    105e:	41 f4       	brne	.+16     	; 0x1070 <vfprintf+0xd6>
    1060:	f6 01       	movw	r30, r12
    1062:	93 fd       	sbrc	r25, 3
    1064:	85 91       	lpm	r24, Z+
    1066:	93 ff       	sbrs	r25, 3
    1068:	81 91       	ld	r24, Z+
    106a:	6f 01       	movw	r12, r30
    106c:	81 11       	cpse	r24, r1
    106e:	c1 cf       	rjmp	.-126    	; 0xff2 <vfprintf+0x58>
    1070:	98 2f       	mov	r25, r24
    1072:	9f 7d       	andi	r25, 0xDF	; 223
    1074:	95 54       	subi	r25, 0x45	; 69
    1076:	93 30       	cpi	r25, 0x03	; 3
    1078:	28 f4       	brcc	.+10     	; 0x1084 <vfprintf+0xea>
    107a:	0c 5f       	subi	r16, 0xFC	; 252
    107c:	1f 4f       	sbci	r17, 0xFF	; 255
    107e:	ff e3       	ldi	r31, 0x3F	; 63
    1080:	f9 83       	std	Y+1, r31	; 0x01
    1082:	0d c0       	rjmp	.+26     	; 0x109e <vfprintf+0x104>
    1084:	83 36       	cpi	r24, 0x63	; 99
    1086:	31 f0       	breq	.+12     	; 0x1094 <vfprintf+0xfa>
    1088:	83 37       	cpi	r24, 0x73	; 115
    108a:	71 f0       	breq	.+28     	; 0x10a8 <vfprintf+0x10e>
    108c:	83 35       	cpi	r24, 0x53	; 83
    108e:	09 f0       	breq	.+2      	; 0x1092 <vfprintf+0xf8>
    1090:	57 c0       	rjmp	.+174    	; 0x1140 <vfprintf+0x1a6>
    1092:	21 c0       	rjmp	.+66     	; 0x10d6 <vfprintf+0x13c>
    1094:	f8 01       	movw	r30, r16
    1096:	80 81       	ld	r24, Z
    1098:	89 83       	std	Y+1, r24	; 0x01
    109a:	0e 5f       	subi	r16, 0xFE	; 254
    109c:	1f 4f       	sbci	r17, 0xFF	; 255
    109e:	44 24       	eor	r4, r4
    10a0:	43 94       	inc	r4
    10a2:	51 2c       	mov	r5, r1
    10a4:	54 01       	movw	r10, r8
    10a6:	14 c0       	rjmp	.+40     	; 0x10d0 <vfprintf+0x136>
    10a8:	38 01       	movw	r6, r16
    10aa:	f2 e0       	ldi	r31, 0x02	; 2
    10ac:	6f 0e       	add	r6, r31
    10ae:	71 1c       	adc	r7, r1
    10b0:	f8 01       	movw	r30, r16
    10b2:	a0 80       	ld	r10, Z
    10b4:	b1 80       	ldd	r11, Z+1	; 0x01
    10b6:	26 ff       	sbrs	r18, 6
    10b8:	03 c0       	rjmp	.+6      	; 0x10c0 <vfprintf+0x126>
    10ba:	65 2d       	mov	r22, r5
    10bc:	70 e0       	ldi	r23, 0x00	; 0
    10be:	02 c0       	rjmp	.+4      	; 0x10c4 <vfprintf+0x12a>
    10c0:	6f ef       	ldi	r22, 0xFF	; 255
    10c2:	7f ef       	ldi	r23, 0xFF	; 255
    10c4:	c5 01       	movw	r24, r10
    10c6:	2c 87       	std	Y+12, r18	; 0x0c
    10c8:	7e d2       	rcall	.+1276   	; 0x15c6 <strnlen>
    10ca:	2c 01       	movw	r4, r24
    10cc:	83 01       	movw	r16, r6
    10ce:	2c 85       	ldd	r18, Y+12	; 0x0c
    10d0:	2f 77       	andi	r18, 0x7F	; 127
    10d2:	22 2e       	mov	r2, r18
    10d4:	16 c0       	rjmp	.+44     	; 0x1102 <vfprintf+0x168>
    10d6:	38 01       	movw	r6, r16
    10d8:	f2 e0       	ldi	r31, 0x02	; 2
    10da:	6f 0e       	add	r6, r31
    10dc:	71 1c       	adc	r7, r1
    10de:	f8 01       	movw	r30, r16
    10e0:	a0 80       	ld	r10, Z
    10e2:	b1 80       	ldd	r11, Z+1	; 0x01
    10e4:	26 ff       	sbrs	r18, 6
    10e6:	03 c0       	rjmp	.+6      	; 0x10ee <vfprintf+0x154>
    10e8:	65 2d       	mov	r22, r5
    10ea:	70 e0       	ldi	r23, 0x00	; 0
    10ec:	02 c0       	rjmp	.+4      	; 0x10f2 <vfprintf+0x158>
    10ee:	6f ef       	ldi	r22, 0xFF	; 255
    10f0:	7f ef       	ldi	r23, 0xFF	; 255
    10f2:	c5 01       	movw	r24, r10
    10f4:	2c 87       	std	Y+12, r18	; 0x0c
    10f6:	55 d2       	rcall	.+1194   	; 0x15a2 <strnlen_P>
    10f8:	2c 01       	movw	r4, r24
    10fa:	2c 85       	ldd	r18, Y+12	; 0x0c
    10fc:	20 68       	ori	r18, 0x80	; 128
    10fe:	22 2e       	mov	r2, r18
    1100:	83 01       	movw	r16, r6
    1102:	23 fc       	sbrc	r2, 3
    1104:	19 c0       	rjmp	.+50     	; 0x1138 <vfprintf+0x19e>
    1106:	83 2d       	mov	r24, r3
    1108:	90 e0       	ldi	r25, 0x00	; 0
    110a:	48 16       	cp	r4, r24
    110c:	59 06       	cpc	r5, r25
    110e:	a0 f4       	brcc	.+40     	; 0x1138 <vfprintf+0x19e>
    1110:	b7 01       	movw	r22, r14
    1112:	80 e2       	ldi	r24, 0x20	; 32
    1114:	90 e0       	ldi	r25, 0x00	; 0
    1116:	62 d2       	rcall	.+1220   	; 0x15dc <fputc>
    1118:	3a 94       	dec	r3
    111a:	f5 cf       	rjmp	.-22     	; 0x1106 <vfprintf+0x16c>
    111c:	f5 01       	movw	r30, r10
    111e:	27 fc       	sbrc	r2, 7
    1120:	85 91       	lpm	r24, Z+
    1122:	27 fe       	sbrs	r2, 7
    1124:	81 91       	ld	r24, Z+
    1126:	5f 01       	movw	r10, r30
    1128:	b7 01       	movw	r22, r14
    112a:	90 e0       	ldi	r25, 0x00	; 0
    112c:	57 d2       	rcall	.+1198   	; 0x15dc <fputc>
    112e:	31 10       	cpse	r3, r1
    1130:	3a 94       	dec	r3
    1132:	f1 e0       	ldi	r31, 0x01	; 1
    1134:	4f 1a       	sub	r4, r31
    1136:	51 08       	sbc	r5, r1
    1138:	41 14       	cp	r4, r1
    113a:	51 04       	cpc	r5, r1
    113c:	79 f7       	brne	.-34     	; 0x111c <vfprintf+0x182>
    113e:	de c0       	rjmp	.+444    	; 0x12fc <vfprintf+0x362>
    1140:	84 36       	cpi	r24, 0x64	; 100
    1142:	11 f0       	breq	.+4      	; 0x1148 <vfprintf+0x1ae>
    1144:	89 36       	cpi	r24, 0x69	; 105
    1146:	31 f5       	brne	.+76     	; 0x1194 <vfprintf+0x1fa>
    1148:	f8 01       	movw	r30, r16
    114a:	27 ff       	sbrs	r18, 7
    114c:	07 c0       	rjmp	.+14     	; 0x115c <vfprintf+0x1c2>
    114e:	60 81       	ld	r22, Z
    1150:	71 81       	ldd	r23, Z+1	; 0x01
    1152:	82 81       	ldd	r24, Z+2	; 0x02
    1154:	93 81       	ldd	r25, Z+3	; 0x03
    1156:	0c 5f       	subi	r16, 0xFC	; 252
    1158:	1f 4f       	sbci	r17, 0xFF	; 255
    115a:	08 c0       	rjmp	.+16     	; 0x116c <vfprintf+0x1d2>
    115c:	60 81       	ld	r22, Z
    115e:	71 81       	ldd	r23, Z+1	; 0x01
    1160:	88 27       	eor	r24, r24
    1162:	77 fd       	sbrc	r23, 7
    1164:	80 95       	com	r24
    1166:	98 2f       	mov	r25, r24
    1168:	0e 5f       	subi	r16, 0xFE	; 254
    116a:	1f 4f       	sbci	r17, 0xFF	; 255
    116c:	2f 76       	andi	r18, 0x6F	; 111
    116e:	b2 2e       	mov	r11, r18
    1170:	97 ff       	sbrs	r25, 7
    1172:	09 c0       	rjmp	.+18     	; 0x1186 <vfprintf+0x1ec>
    1174:	90 95       	com	r25
    1176:	80 95       	com	r24
    1178:	70 95       	com	r23
    117a:	61 95       	neg	r22
    117c:	7f 4f       	sbci	r23, 0xFF	; 255
    117e:	8f 4f       	sbci	r24, 0xFF	; 255
    1180:	9f 4f       	sbci	r25, 0xFF	; 255
    1182:	20 68       	ori	r18, 0x80	; 128
    1184:	b2 2e       	mov	r11, r18
    1186:	2a e0       	ldi	r18, 0x0A	; 10
    1188:	30 e0       	ldi	r19, 0x00	; 0
    118a:	a4 01       	movw	r20, r8
    118c:	59 d2       	rcall	.+1202   	; 0x1640 <__ultoa_invert>
    118e:	a8 2e       	mov	r10, r24
    1190:	a8 18       	sub	r10, r8
    1192:	43 c0       	rjmp	.+134    	; 0x121a <vfprintf+0x280>
    1194:	85 37       	cpi	r24, 0x75	; 117
    1196:	29 f4       	brne	.+10     	; 0x11a2 <vfprintf+0x208>
    1198:	2f 7e       	andi	r18, 0xEF	; 239
    119a:	b2 2e       	mov	r11, r18
    119c:	2a e0       	ldi	r18, 0x0A	; 10
    119e:	30 e0       	ldi	r19, 0x00	; 0
    11a0:	25 c0       	rjmp	.+74     	; 0x11ec <vfprintf+0x252>
    11a2:	f2 2f       	mov	r31, r18
    11a4:	f9 7f       	andi	r31, 0xF9	; 249
    11a6:	bf 2e       	mov	r11, r31
    11a8:	8f 36       	cpi	r24, 0x6F	; 111
    11aa:	c1 f0       	breq	.+48     	; 0x11dc <vfprintf+0x242>
    11ac:	18 f4       	brcc	.+6      	; 0x11b4 <vfprintf+0x21a>
    11ae:	88 35       	cpi	r24, 0x58	; 88
    11b0:	79 f0       	breq	.+30     	; 0x11d0 <vfprintf+0x236>
    11b2:	ad c0       	rjmp	.+346    	; 0x130e <vfprintf+0x374>
    11b4:	80 37       	cpi	r24, 0x70	; 112
    11b6:	19 f0       	breq	.+6      	; 0x11be <vfprintf+0x224>
    11b8:	88 37       	cpi	r24, 0x78	; 120
    11ba:	21 f0       	breq	.+8      	; 0x11c4 <vfprintf+0x22a>
    11bc:	a8 c0       	rjmp	.+336    	; 0x130e <vfprintf+0x374>
    11be:	2f 2f       	mov	r18, r31
    11c0:	20 61       	ori	r18, 0x10	; 16
    11c2:	b2 2e       	mov	r11, r18
    11c4:	b4 fe       	sbrs	r11, 4
    11c6:	0d c0       	rjmp	.+26     	; 0x11e2 <vfprintf+0x248>
    11c8:	8b 2d       	mov	r24, r11
    11ca:	84 60       	ori	r24, 0x04	; 4
    11cc:	b8 2e       	mov	r11, r24
    11ce:	09 c0       	rjmp	.+18     	; 0x11e2 <vfprintf+0x248>
    11d0:	24 ff       	sbrs	r18, 4
    11d2:	0a c0       	rjmp	.+20     	; 0x11e8 <vfprintf+0x24e>
    11d4:	9f 2f       	mov	r25, r31
    11d6:	96 60       	ori	r25, 0x06	; 6
    11d8:	b9 2e       	mov	r11, r25
    11da:	06 c0       	rjmp	.+12     	; 0x11e8 <vfprintf+0x24e>
    11dc:	28 e0       	ldi	r18, 0x08	; 8
    11de:	30 e0       	ldi	r19, 0x00	; 0
    11e0:	05 c0       	rjmp	.+10     	; 0x11ec <vfprintf+0x252>
    11e2:	20 e1       	ldi	r18, 0x10	; 16
    11e4:	30 e0       	ldi	r19, 0x00	; 0
    11e6:	02 c0       	rjmp	.+4      	; 0x11ec <vfprintf+0x252>
    11e8:	20 e1       	ldi	r18, 0x10	; 16
    11ea:	32 e0       	ldi	r19, 0x02	; 2
    11ec:	f8 01       	movw	r30, r16
    11ee:	b7 fe       	sbrs	r11, 7
    11f0:	07 c0       	rjmp	.+14     	; 0x1200 <vfprintf+0x266>
    11f2:	60 81       	ld	r22, Z
    11f4:	71 81       	ldd	r23, Z+1	; 0x01
    11f6:	82 81       	ldd	r24, Z+2	; 0x02
    11f8:	93 81       	ldd	r25, Z+3	; 0x03
    11fa:	0c 5f       	subi	r16, 0xFC	; 252
    11fc:	1f 4f       	sbci	r17, 0xFF	; 255
    11fe:	06 c0       	rjmp	.+12     	; 0x120c <vfprintf+0x272>
    1200:	60 81       	ld	r22, Z
    1202:	71 81       	ldd	r23, Z+1	; 0x01
    1204:	80 e0       	ldi	r24, 0x00	; 0
    1206:	90 e0       	ldi	r25, 0x00	; 0
    1208:	0e 5f       	subi	r16, 0xFE	; 254
    120a:	1f 4f       	sbci	r17, 0xFF	; 255
    120c:	a4 01       	movw	r20, r8
    120e:	18 d2       	rcall	.+1072   	; 0x1640 <__ultoa_invert>
    1210:	a8 2e       	mov	r10, r24
    1212:	a8 18       	sub	r10, r8
    1214:	fb 2d       	mov	r31, r11
    1216:	ff 77       	andi	r31, 0x7F	; 127
    1218:	bf 2e       	mov	r11, r31
    121a:	b6 fe       	sbrs	r11, 6
    121c:	0b c0       	rjmp	.+22     	; 0x1234 <vfprintf+0x29a>
    121e:	2b 2d       	mov	r18, r11
    1220:	2e 7f       	andi	r18, 0xFE	; 254
    1222:	a5 14       	cp	r10, r5
    1224:	50 f4       	brcc	.+20     	; 0x123a <vfprintf+0x2a0>
    1226:	b4 fe       	sbrs	r11, 4
    1228:	0a c0       	rjmp	.+20     	; 0x123e <vfprintf+0x2a4>
    122a:	b2 fc       	sbrc	r11, 2
    122c:	08 c0       	rjmp	.+16     	; 0x123e <vfprintf+0x2a4>
    122e:	2b 2d       	mov	r18, r11
    1230:	2e 7e       	andi	r18, 0xEE	; 238
    1232:	05 c0       	rjmp	.+10     	; 0x123e <vfprintf+0x2a4>
    1234:	7a 2c       	mov	r7, r10
    1236:	2b 2d       	mov	r18, r11
    1238:	03 c0       	rjmp	.+6      	; 0x1240 <vfprintf+0x2a6>
    123a:	7a 2c       	mov	r7, r10
    123c:	01 c0       	rjmp	.+2      	; 0x1240 <vfprintf+0x2a6>
    123e:	75 2c       	mov	r7, r5
    1240:	24 ff       	sbrs	r18, 4
    1242:	0d c0       	rjmp	.+26     	; 0x125e <vfprintf+0x2c4>
    1244:	fe 01       	movw	r30, r28
    1246:	ea 0d       	add	r30, r10
    1248:	f1 1d       	adc	r31, r1
    124a:	80 81       	ld	r24, Z
    124c:	80 33       	cpi	r24, 0x30	; 48
    124e:	11 f4       	brne	.+4      	; 0x1254 <vfprintf+0x2ba>
    1250:	29 7e       	andi	r18, 0xE9	; 233
    1252:	09 c0       	rjmp	.+18     	; 0x1266 <vfprintf+0x2cc>
    1254:	22 ff       	sbrs	r18, 2
    1256:	06 c0       	rjmp	.+12     	; 0x1264 <vfprintf+0x2ca>
    1258:	73 94       	inc	r7
    125a:	73 94       	inc	r7
    125c:	04 c0       	rjmp	.+8      	; 0x1266 <vfprintf+0x2cc>
    125e:	82 2f       	mov	r24, r18
    1260:	86 78       	andi	r24, 0x86	; 134
    1262:	09 f0       	breq	.+2      	; 0x1266 <vfprintf+0x2cc>
    1264:	73 94       	inc	r7
    1266:	23 fd       	sbrc	r18, 3
    1268:	12 c0       	rjmp	.+36     	; 0x128e <vfprintf+0x2f4>
    126a:	20 ff       	sbrs	r18, 0
    126c:	06 c0       	rjmp	.+12     	; 0x127a <vfprintf+0x2e0>
    126e:	5a 2c       	mov	r5, r10
    1270:	73 14       	cp	r7, r3
    1272:	18 f4       	brcc	.+6      	; 0x127a <vfprintf+0x2e0>
    1274:	53 0c       	add	r5, r3
    1276:	57 18       	sub	r5, r7
    1278:	73 2c       	mov	r7, r3
    127a:	73 14       	cp	r7, r3
    127c:	60 f4       	brcc	.+24     	; 0x1296 <vfprintf+0x2fc>
    127e:	b7 01       	movw	r22, r14
    1280:	80 e2       	ldi	r24, 0x20	; 32
    1282:	90 e0       	ldi	r25, 0x00	; 0
    1284:	2c 87       	std	Y+12, r18	; 0x0c
    1286:	aa d1       	rcall	.+852    	; 0x15dc <fputc>
    1288:	73 94       	inc	r7
    128a:	2c 85       	ldd	r18, Y+12	; 0x0c
    128c:	f6 cf       	rjmp	.-20     	; 0x127a <vfprintf+0x2e0>
    128e:	73 14       	cp	r7, r3
    1290:	10 f4       	brcc	.+4      	; 0x1296 <vfprintf+0x2fc>
    1292:	37 18       	sub	r3, r7
    1294:	01 c0       	rjmp	.+2      	; 0x1298 <vfprintf+0x2fe>
    1296:	31 2c       	mov	r3, r1
    1298:	24 ff       	sbrs	r18, 4
    129a:	11 c0       	rjmp	.+34     	; 0x12be <vfprintf+0x324>
    129c:	b7 01       	movw	r22, r14
    129e:	80 e3       	ldi	r24, 0x30	; 48
    12a0:	90 e0       	ldi	r25, 0x00	; 0
    12a2:	2c 87       	std	Y+12, r18	; 0x0c
    12a4:	9b d1       	rcall	.+822    	; 0x15dc <fputc>
    12a6:	2c 85       	ldd	r18, Y+12	; 0x0c
    12a8:	22 ff       	sbrs	r18, 2
    12aa:	16 c0       	rjmp	.+44     	; 0x12d8 <vfprintf+0x33e>
    12ac:	21 ff       	sbrs	r18, 1
    12ae:	03 c0       	rjmp	.+6      	; 0x12b6 <vfprintf+0x31c>
    12b0:	88 e5       	ldi	r24, 0x58	; 88
    12b2:	90 e0       	ldi	r25, 0x00	; 0
    12b4:	02 c0       	rjmp	.+4      	; 0x12ba <vfprintf+0x320>
    12b6:	88 e7       	ldi	r24, 0x78	; 120
    12b8:	90 e0       	ldi	r25, 0x00	; 0
    12ba:	b7 01       	movw	r22, r14
    12bc:	0c c0       	rjmp	.+24     	; 0x12d6 <vfprintf+0x33c>
    12be:	82 2f       	mov	r24, r18
    12c0:	86 78       	andi	r24, 0x86	; 134
    12c2:	51 f0       	breq	.+20     	; 0x12d8 <vfprintf+0x33e>
    12c4:	21 fd       	sbrc	r18, 1
    12c6:	02 c0       	rjmp	.+4      	; 0x12cc <vfprintf+0x332>
    12c8:	80 e2       	ldi	r24, 0x20	; 32
    12ca:	01 c0       	rjmp	.+2      	; 0x12ce <vfprintf+0x334>
    12cc:	8b e2       	ldi	r24, 0x2B	; 43
    12ce:	27 fd       	sbrc	r18, 7
    12d0:	8d e2       	ldi	r24, 0x2D	; 45
    12d2:	b7 01       	movw	r22, r14
    12d4:	90 e0       	ldi	r25, 0x00	; 0
    12d6:	82 d1       	rcall	.+772    	; 0x15dc <fputc>
    12d8:	a5 14       	cp	r10, r5
    12da:	30 f4       	brcc	.+12     	; 0x12e8 <vfprintf+0x34e>
    12dc:	b7 01       	movw	r22, r14
    12de:	80 e3       	ldi	r24, 0x30	; 48
    12e0:	90 e0       	ldi	r25, 0x00	; 0
    12e2:	7c d1       	rcall	.+760    	; 0x15dc <fputc>
    12e4:	5a 94       	dec	r5
    12e6:	f8 cf       	rjmp	.-16     	; 0x12d8 <vfprintf+0x33e>
    12e8:	aa 94       	dec	r10
    12ea:	f4 01       	movw	r30, r8
    12ec:	ea 0d       	add	r30, r10
    12ee:	f1 1d       	adc	r31, r1
    12f0:	80 81       	ld	r24, Z
    12f2:	b7 01       	movw	r22, r14
    12f4:	90 e0       	ldi	r25, 0x00	; 0
    12f6:	72 d1       	rcall	.+740    	; 0x15dc <fputc>
    12f8:	a1 10       	cpse	r10, r1
    12fa:	f6 cf       	rjmp	.-20     	; 0x12e8 <vfprintf+0x34e>
    12fc:	33 20       	and	r3, r3
    12fe:	09 f4       	brne	.+2      	; 0x1302 <vfprintf+0x368>
    1300:	5d ce       	rjmp	.-838    	; 0xfbc <vfprintf+0x22>
    1302:	b7 01       	movw	r22, r14
    1304:	80 e2       	ldi	r24, 0x20	; 32
    1306:	90 e0       	ldi	r25, 0x00	; 0
    1308:	69 d1       	rcall	.+722    	; 0x15dc <fputc>
    130a:	3a 94       	dec	r3
    130c:	f7 cf       	rjmp	.-18     	; 0x12fc <vfprintf+0x362>
    130e:	f7 01       	movw	r30, r14
    1310:	86 81       	ldd	r24, Z+6	; 0x06
    1312:	97 81       	ldd	r25, Z+7	; 0x07
    1314:	02 c0       	rjmp	.+4      	; 0x131a <vfprintf+0x380>
    1316:	8f ef       	ldi	r24, 0xFF	; 255
    1318:	9f ef       	ldi	r25, 0xFF	; 255
    131a:	2c 96       	adiw	r28, 0x0c	; 12
    131c:	e2 e1       	ldi	r30, 0x12	; 18
    131e:	0a c2       	rjmp	.+1044   	; 0x1734 <__epilogue_restores__>

00001320 <calloc>:
    1320:	0f 93       	push	r16
    1322:	1f 93       	push	r17
    1324:	cf 93       	push	r28
    1326:	df 93       	push	r29
    1328:	86 9f       	mul	r24, r22
    132a:	80 01       	movw	r16, r0
    132c:	87 9f       	mul	r24, r23
    132e:	10 0d       	add	r17, r0
    1330:	96 9f       	mul	r25, r22
    1332:	10 0d       	add	r17, r0
    1334:	11 24       	eor	r1, r1
    1336:	c8 01       	movw	r24, r16
    1338:	0d d0       	rcall	.+26     	; 0x1354 <malloc>
    133a:	ec 01       	movw	r28, r24
    133c:	00 97       	sbiw	r24, 0x00	; 0
    133e:	21 f0       	breq	.+8      	; 0x1348 <calloc+0x28>
    1340:	a8 01       	movw	r20, r16
    1342:	60 e0       	ldi	r22, 0x00	; 0
    1344:	70 e0       	ldi	r23, 0x00	; 0
    1346:	38 d1       	rcall	.+624    	; 0x15b8 <memset>
    1348:	ce 01       	movw	r24, r28
    134a:	df 91       	pop	r29
    134c:	cf 91       	pop	r28
    134e:	1f 91       	pop	r17
    1350:	0f 91       	pop	r16
    1352:	08 95       	ret

00001354 <malloc>:
    1354:	cf 93       	push	r28
    1356:	df 93       	push	r29
    1358:	82 30       	cpi	r24, 0x02	; 2
    135a:	91 05       	cpc	r25, r1
    135c:	10 f4       	brcc	.+4      	; 0x1362 <malloc+0xe>
    135e:	82 e0       	ldi	r24, 0x02	; 2
    1360:	90 e0       	ldi	r25, 0x00	; 0
    1362:	e0 91 c6 01 	lds	r30, 0x01C6
    1366:	f0 91 c7 01 	lds	r31, 0x01C7
    136a:	20 e0       	ldi	r18, 0x00	; 0
    136c:	30 e0       	ldi	r19, 0x00	; 0
    136e:	a0 e0       	ldi	r26, 0x00	; 0
    1370:	b0 e0       	ldi	r27, 0x00	; 0
    1372:	30 97       	sbiw	r30, 0x00	; 0
    1374:	39 f1       	breq	.+78     	; 0x13c4 <malloc+0x70>
    1376:	40 81       	ld	r20, Z
    1378:	51 81       	ldd	r21, Z+1	; 0x01
    137a:	48 17       	cp	r20, r24
    137c:	59 07       	cpc	r21, r25
    137e:	b8 f0       	brcs	.+46     	; 0x13ae <malloc+0x5a>
    1380:	48 17       	cp	r20, r24
    1382:	59 07       	cpc	r21, r25
    1384:	71 f4       	brne	.+28     	; 0x13a2 <malloc+0x4e>
    1386:	82 81       	ldd	r24, Z+2	; 0x02
    1388:	93 81       	ldd	r25, Z+3	; 0x03
    138a:	10 97       	sbiw	r26, 0x00	; 0
    138c:	29 f0       	breq	.+10     	; 0x1398 <malloc+0x44>
    138e:	13 96       	adiw	r26, 0x03	; 3
    1390:	9c 93       	st	X, r25
    1392:	8e 93       	st	-X, r24
    1394:	12 97       	sbiw	r26, 0x02	; 2
    1396:	2c c0       	rjmp	.+88     	; 0x13f0 <malloc+0x9c>
    1398:	90 93 c7 01 	sts	0x01C7, r25
    139c:	80 93 c6 01 	sts	0x01C6, r24
    13a0:	27 c0       	rjmp	.+78     	; 0x13f0 <malloc+0x9c>
    13a2:	21 15       	cp	r18, r1
    13a4:	31 05       	cpc	r19, r1
    13a6:	31 f0       	breq	.+12     	; 0x13b4 <malloc+0x60>
    13a8:	42 17       	cp	r20, r18
    13aa:	53 07       	cpc	r21, r19
    13ac:	18 f0       	brcs	.+6      	; 0x13b4 <malloc+0x60>
    13ae:	a9 01       	movw	r20, r18
    13b0:	db 01       	movw	r26, r22
    13b2:	01 c0       	rjmp	.+2      	; 0x13b6 <malloc+0x62>
    13b4:	ef 01       	movw	r28, r30
    13b6:	9a 01       	movw	r18, r20
    13b8:	bd 01       	movw	r22, r26
    13ba:	df 01       	movw	r26, r30
    13bc:	02 80       	ldd	r0, Z+2	; 0x02
    13be:	f3 81       	ldd	r31, Z+3	; 0x03
    13c0:	e0 2d       	mov	r30, r0
    13c2:	d7 cf       	rjmp	.-82     	; 0x1372 <malloc+0x1e>
    13c4:	21 15       	cp	r18, r1
    13c6:	31 05       	cpc	r19, r1
    13c8:	f9 f0       	breq	.+62     	; 0x1408 <malloc+0xb4>
    13ca:	28 1b       	sub	r18, r24
    13cc:	39 0b       	sbc	r19, r25
    13ce:	24 30       	cpi	r18, 0x04	; 4
    13d0:	31 05       	cpc	r19, r1
    13d2:	80 f4       	brcc	.+32     	; 0x13f4 <malloc+0xa0>
    13d4:	8a 81       	ldd	r24, Y+2	; 0x02
    13d6:	9b 81       	ldd	r25, Y+3	; 0x03
    13d8:	61 15       	cp	r22, r1
    13da:	71 05       	cpc	r23, r1
    13dc:	21 f0       	breq	.+8      	; 0x13e6 <malloc+0x92>
    13de:	fb 01       	movw	r30, r22
    13e0:	93 83       	std	Z+3, r25	; 0x03
    13e2:	82 83       	std	Z+2, r24	; 0x02
    13e4:	04 c0       	rjmp	.+8      	; 0x13ee <malloc+0x9a>
    13e6:	90 93 c7 01 	sts	0x01C7, r25
    13ea:	80 93 c6 01 	sts	0x01C6, r24
    13ee:	fe 01       	movw	r30, r28
    13f0:	32 96       	adiw	r30, 0x02	; 2
    13f2:	44 c0       	rjmp	.+136    	; 0x147c <malloc+0x128>
    13f4:	fe 01       	movw	r30, r28
    13f6:	e2 0f       	add	r30, r18
    13f8:	f3 1f       	adc	r31, r19
    13fa:	81 93       	st	Z+, r24
    13fc:	91 93       	st	Z+, r25
    13fe:	22 50       	subi	r18, 0x02	; 2
    1400:	31 09       	sbc	r19, r1
    1402:	39 83       	std	Y+1, r19	; 0x01
    1404:	28 83       	st	Y, r18
    1406:	3a c0       	rjmp	.+116    	; 0x147c <malloc+0x128>
    1408:	20 91 c4 01 	lds	r18, 0x01C4
    140c:	30 91 c5 01 	lds	r19, 0x01C5
    1410:	23 2b       	or	r18, r19
    1412:	41 f4       	brne	.+16     	; 0x1424 <malloc+0xd0>
    1414:	20 91 02 01 	lds	r18, 0x0102
    1418:	30 91 03 01 	lds	r19, 0x0103
    141c:	30 93 c5 01 	sts	0x01C5, r19
    1420:	20 93 c4 01 	sts	0x01C4, r18
    1424:	20 91 00 01 	lds	r18, 0x0100
    1428:	30 91 01 01 	lds	r19, 0x0101
    142c:	21 15       	cp	r18, r1
    142e:	31 05       	cpc	r19, r1
    1430:	41 f4       	brne	.+16     	; 0x1442 <malloc+0xee>
    1432:	2d b7       	in	r18, 0x3d	; 61
    1434:	3e b7       	in	r19, 0x3e	; 62
    1436:	40 91 04 01 	lds	r20, 0x0104
    143a:	50 91 05 01 	lds	r21, 0x0105
    143e:	24 1b       	sub	r18, r20
    1440:	35 0b       	sbc	r19, r21
    1442:	e0 91 c4 01 	lds	r30, 0x01C4
    1446:	f0 91 c5 01 	lds	r31, 0x01C5
    144a:	e2 17       	cp	r30, r18
    144c:	f3 07       	cpc	r31, r19
    144e:	a0 f4       	brcc	.+40     	; 0x1478 <malloc+0x124>
    1450:	2e 1b       	sub	r18, r30
    1452:	3f 0b       	sbc	r19, r31
    1454:	28 17       	cp	r18, r24
    1456:	39 07       	cpc	r19, r25
    1458:	78 f0       	brcs	.+30     	; 0x1478 <malloc+0x124>
    145a:	ac 01       	movw	r20, r24
    145c:	4e 5f       	subi	r20, 0xFE	; 254
    145e:	5f 4f       	sbci	r21, 0xFF	; 255
    1460:	24 17       	cp	r18, r20
    1462:	35 07       	cpc	r19, r21
    1464:	48 f0       	brcs	.+18     	; 0x1478 <malloc+0x124>
    1466:	4e 0f       	add	r20, r30
    1468:	5f 1f       	adc	r21, r31
    146a:	50 93 c5 01 	sts	0x01C5, r21
    146e:	40 93 c4 01 	sts	0x01C4, r20
    1472:	81 93       	st	Z+, r24
    1474:	91 93       	st	Z+, r25
    1476:	02 c0       	rjmp	.+4      	; 0x147c <malloc+0x128>
    1478:	e0 e0       	ldi	r30, 0x00	; 0
    147a:	f0 e0       	ldi	r31, 0x00	; 0
    147c:	cf 01       	movw	r24, r30
    147e:	df 91       	pop	r29
    1480:	cf 91       	pop	r28
    1482:	08 95       	ret

00001484 <free>:
    1484:	cf 93       	push	r28
    1486:	df 93       	push	r29
    1488:	00 97       	sbiw	r24, 0x00	; 0
    148a:	09 f4       	brne	.+2      	; 0x148e <free+0xa>
    148c:	87 c0       	rjmp	.+270    	; 0x159c <free+0x118>
    148e:	fc 01       	movw	r30, r24
    1490:	32 97       	sbiw	r30, 0x02	; 2
    1492:	13 82       	std	Z+3, r1	; 0x03
    1494:	12 82       	std	Z+2, r1	; 0x02
    1496:	c0 91 c6 01 	lds	r28, 0x01C6
    149a:	d0 91 c7 01 	lds	r29, 0x01C7
    149e:	20 97       	sbiw	r28, 0x00	; 0
    14a0:	81 f4       	brne	.+32     	; 0x14c2 <free+0x3e>
    14a2:	20 81       	ld	r18, Z
    14a4:	31 81       	ldd	r19, Z+1	; 0x01
    14a6:	28 0f       	add	r18, r24
    14a8:	39 1f       	adc	r19, r25
    14aa:	80 91 c4 01 	lds	r24, 0x01C4
    14ae:	90 91 c5 01 	lds	r25, 0x01C5
    14b2:	82 17       	cp	r24, r18
    14b4:	93 07       	cpc	r25, r19
    14b6:	79 f5       	brne	.+94     	; 0x1516 <free+0x92>
    14b8:	f0 93 c5 01 	sts	0x01C5, r31
    14bc:	e0 93 c4 01 	sts	0x01C4, r30
    14c0:	6d c0       	rjmp	.+218    	; 0x159c <free+0x118>
    14c2:	de 01       	movw	r26, r28
    14c4:	20 e0       	ldi	r18, 0x00	; 0
    14c6:	30 e0       	ldi	r19, 0x00	; 0
    14c8:	ae 17       	cp	r26, r30
    14ca:	bf 07       	cpc	r27, r31
    14cc:	50 f4       	brcc	.+20     	; 0x14e2 <free+0x5e>
    14ce:	12 96       	adiw	r26, 0x02	; 2
    14d0:	4d 91       	ld	r20, X+
    14d2:	5c 91       	ld	r21, X
    14d4:	13 97       	sbiw	r26, 0x03	; 3
    14d6:	9d 01       	movw	r18, r26
    14d8:	41 15       	cp	r20, r1
    14da:	51 05       	cpc	r21, r1
    14dc:	09 f1       	breq	.+66     	; 0x1520 <free+0x9c>
    14de:	da 01       	movw	r26, r20
    14e0:	f3 cf       	rjmp	.-26     	; 0x14c8 <free+0x44>
    14e2:	b3 83       	std	Z+3, r27	; 0x03
    14e4:	a2 83       	std	Z+2, r26	; 0x02
    14e6:	40 81       	ld	r20, Z
    14e8:	51 81       	ldd	r21, Z+1	; 0x01
    14ea:	84 0f       	add	r24, r20
    14ec:	95 1f       	adc	r25, r21
    14ee:	8a 17       	cp	r24, r26
    14f0:	9b 07       	cpc	r25, r27
    14f2:	71 f4       	brne	.+28     	; 0x1510 <free+0x8c>
    14f4:	8d 91       	ld	r24, X+
    14f6:	9c 91       	ld	r25, X
    14f8:	11 97       	sbiw	r26, 0x01	; 1
    14fa:	84 0f       	add	r24, r20
    14fc:	95 1f       	adc	r25, r21
    14fe:	02 96       	adiw	r24, 0x02	; 2
    1500:	91 83       	std	Z+1, r25	; 0x01
    1502:	80 83       	st	Z, r24
    1504:	12 96       	adiw	r26, 0x02	; 2
    1506:	8d 91       	ld	r24, X+
    1508:	9c 91       	ld	r25, X
    150a:	13 97       	sbiw	r26, 0x03	; 3
    150c:	93 83       	std	Z+3, r25	; 0x03
    150e:	82 83       	std	Z+2, r24	; 0x02
    1510:	21 15       	cp	r18, r1
    1512:	31 05       	cpc	r19, r1
    1514:	29 f4       	brne	.+10     	; 0x1520 <free+0x9c>
    1516:	f0 93 c7 01 	sts	0x01C7, r31
    151a:	e0 93 c6 01 	sts	0x01C6, r30
    151e:	3e c0       	rjmp	.+124    	; 0x159c <free+0x118>
    1520:	d9 01       	movw	r26, r18
    1522:	13 96       	adiw	r26, 0x03	; 3
    1524:	fc 93       	st	X, r31
    1526:	ee 93       	st	-X, r30
    1528:	12 97       	sbiw	r26, 0x02	; 2
    152a:	4d 91       	ld	r20, X+
    152c:	5d 91       	ld	r21, X+
    152e:	a4 0f       	add	r26, r20
    1530:	b5 1f       	adc	r27, r21
    1532:	ea 17       	cp	r30, r26
    1534:	fb 07       	cpc	r31, r27
    1536:	79 f4       	brne	.+30     	; 0x1556 <free+0xd2>
    1538:	80 81       	ld	r24, Z
    153a:	91 81       	ldd	r25, Z+1	; 0x01
    153c:	84 0f       	add	r24, r20
    153e:	95 1f       	adc	r25, r21
    1540:	02 96       	adiw	r24, 0x02	; 2
    1542:	d9 01       	movw	r26, r18
    1544:	11 96       	adiw	r26, 0x01	; 1
    1546:	9c 93       	st	X, r25
    1548:	8e 93       	st	-X, r24
    154a:	82 81       	ldd	r24, Z+2	; 0x02
    154c:	93 81       	ldd	r25, Z+3	; 0x03
    154e:	13 96       	adiw	r26, 0x03	; 3
    1550:	9c 93       	st	X, r25
    1552:	8e 93       	st	-X, r24
    1554:	12 97       	sbiw	r26, 0x02	; 2
    1556:	e0 e0       	ldi	r30, 0x00	; 0
    1558:	f0 e0       	ldi	r31, 0x00	; 0
    155a:	8a 81       	ldd	r24, Y+2	; 0x02
    155c:	9b 81       	ldd	r25, Y+3	; 0x03
    155e:	00 97       	sbiw	r24, 0x00	; 0
    1560:	19 f0       	breq	.+6      	; 0x1568 <free+0xe4>
    1562:	fe 01       	movw	r30, r28
    1564:	ec 01       	movw	r28, r24
    1566:	f9 cf       	rjmp	.-14     	; 0x155a <free+0xd6>
    1568:	ce 01       	movw	r24, r28
    156a:	02 96       	adiw	r24, 0x02	; 2
    156c:	28 81       	ld	r18, Y
    156e:	39 81       	ldd	r19, Y+1	; 0x01
    1570:	82 0f       	add	r24, r18
    1572:	93 1f       	adc	r25, r19
    1574:	20 91 c4 01 	lds	r18, 0x01C4
    1578:	30 91 c5 01 	lds	r19, 0x01C5
    157c:	28 17       	cp	r18, r24
    157e:	39 07       	cpc	r19, r25
    1580:	69 f4       	brne	.+26     	; 0x159c <free+0x118>
    1582:	30 97       	sbiw	r30, 0x00	; 0
    1584:	29 f4       	brne	.+10     	; 0x1590 <free+0x10c>
    1586:	10 92 c7 01 	sts	0x01C7, r1
    158a:	10 92 c6 01 	sts	0x01C6, r1
    158e:	02 c0       	rjmp	.+4      	; 0x1594 <free+0x110>
    1590:	13 82       	std	Z+3, r1	; 0x03
    1592:	12 82       	std	Z+2, r1	; 0x02
    1594:	d0 93 c5 01 	sts	0x01C5, r29
    1598:	c0 93 c4 01 	sts	0x01C4, r28
    159c:	df 91       	pop	r29
    159e:	cf 91       	pop	r28
    15a0:	08 95       	ret

000015a2 <strnlen_P>:
    15a2:	fc 01       	movw	r30, r24
    15a4:	05 90       	lpm	r0, Z+
    15a6:	61 50       	subi	r22, 0x01	; 1
    15a8:	70 40       	sbci	r23, 0x00	; 0
    15aa:	01 10       	cpse	r0, r1
    15ac:	d8 f7       	brcc	.-10     	; 0x15a4 <strnlen_P+0x2>
    15ae:	80 95       	com	r24
    15b0:	90 95       	com	r25
    15b2:	8e 0f       	add	r24, r30
    15b4:	9f 1f       	adc	r25, r31
    15b6:	08 95       	ret

000015b8 <memset>:
    15b8:	dc 01       	movw	r26, r24
    15ba:	01 c0       	rjmp	.+2      	; 0x15be <memset+0x6>
    15bc:	6d 93       	st	X+, r22
    15be:	41 50       	subi	r20, 0x01	; 1
    15c0:	50 40       	sbci	r21, 0x00	; 0
    15c2:	e0 f7       	brcc	.-8      	; 0x15bc <memset+0x4>
    15c4:	08 95       	ret

000015c6 <strnlen>:
    15c6:	fc 01       	movw	r30, r24
    15c8:	61 50       	subi	r22, 0x01	; 1
    15ca:	70 40       	sbci	r23, 0x00	; 0
    15cc:	01 90       	ld	r0, Z+
    15ce:	01 10       	cpse	r0, r1
    15d0:	d8 f7       	brcc	.-10     	; 0x15c8 <strnlen+0x2>
    15d2:	80 95       	com	r24
    15d4:	90 95       	com	r25
    15d6:	8e 0f       	add	r24, r30
    15d8:	9f 1f       	adc	r25, r31
    15da:	08 95       	ret

000015dc <fputc>:
    15dc:	0f 93       	push	r16
    15de:	1f 93       	push	r17
    15e0:	cf 93       	push	r28
    15e2:	df 93       	push	r29
    15e4:	18 2f       	mov	r17, r24
    15e6:	09 2f       	mov	r16, r25
    15e8:	eb 01       	movw	r28, r22
    15ea:	8b 81       	ldd	r24, Y+3	; 0x03
    15ec:	81 fd       	sbrc	r24, 1
    15ee:	03 c0       	rjmp	.+6      	; 0x15f6 <fputc+0x1a>
    15f0:	8f ef       	ldi	r24, 0xFF	; 255
    15f2:	9f ef       	ldi	r25, 0xFF	; 255
    15f4:	20 c0       	rjmp	.+64     	; 0x1636 <fputc+0x5a>
    15f6:	82 ff       	sbrs	r24, 2
    15f8:	10 c0       	rjmp	.+32     	; 0x161a <fputc+0x3e>
    15fa:	4e 81       	ldd	r20, Y+6	; 0x06
    15fc:	5f 81       	ldd	r21, Y+7	; 0x07
    15fe:	2c 81       	ldd	r18, Y+4	; 0x04
    1600:	3d 81       	ldd	r19, Y+5	; 0x05
    1602:	42 17       	cp	r20, r18
    1604:	53 07       	cpc	r21, r19
    1606:	7c f4       	brge	.+30     	; 0x1626 <fputc+0x4a>
    1608:	e8 81       	ld	r30, Y
    160a:	f9 81       	ldd	r31, Y+1	; 0x01
    160c:	9f 01       	movw	r18, r30
    160e:	2f 5f       	subi	r18, 0xFF	; 255
    1610:	3f 4f       	sbci	r19, 0xFF	; 255
    1612:	39 83       	std	Y+1, r19	; 0x01
    1614:	28 83       	st	Y, r18
    1616:	10 83       	st	Z, r17
    1618:	06 c0       	rjmp	.+12     	; 0x1626 <fputc+0x4a>
    161a:	e8 85       	ldd	r30, Y+8	; 0x08
    161c:	f9 85       	ldd	r31, Y+9	; 0x09
    161e:	81 2f       	mov	r24, r17
    1620:	09 95       	icall
    1622:	89 2b       	or	r24, r25
    1624:	29 f7       	brne	.-54     	; 0x15f0 <fputc+0x14>
    1626:	2e 81       	ldd	r18, Y+6	; 0x06
    1628:	3f 81       	ldd	r19, Y+7	; 0x07
    162a:	2f 5f       	subi	r18, 0xFF	; 255
    162c:	3f 4f       	sbci	r19, 0xFF	; 255
    162e:	3f 83       	std	Y+7, r19	; 0x07
    1630:	2e 83       	std	Y+6, r18	; 0x06
    1632:	81 2f       	mov	r24, r17
    1634:	90 2f       	mov	r25, r16
    1636:	df 91       	pop	r29
    1638:	cf 91       	pop	r28
    163a:	1f 91       	pop	r17
    163c:	0f 91       	pop	r16
    163e:	08 95       	ret

00001640 <__ultoa_invert>:
    1640:	fa 01       	movw	r30, r20
    1642:	aa 27       	eor	r26, r26
    1644:	28 30       	cpi	r18, 0x08	; 8
    1646:	51 f1       	breq	.+84     	; 0x169c <__ultoa_invert+0x5c>
    1648:	20 31       	cpi	r18, 0x10	; 16
    164a:	81 f1       	breq	.+96     	; 0x16ac <__ultoa_invert+0x6c>
    164c:	e8 94       	clt
    164e:	6f 93       	push	r22
    1650:	6e 7f       	andi	r22, 0xFE	; 254
    1652:	6e 5f       	subi	r22, 0xFE	; 254
    1654:	7f 4f       	sbci	r23, 0xFF	; 255
    1656:	8f 4f       	sbci	r24, 0xFF	; 255
    1658:	9f 4f       	sbci	r25, 0xFF	; 255
    165a:	af 4f       	sbci	r26, 0xFF	; 255
    165c:	b1 e0       	ldi	r27, 0x01	; 1
    165e:	3e d0       	rcall	.+124    	; 0x16dc <__ultoa_invert+0x9c>
    1660:	b4 e0       	ldi	r27, 0x04	; 4
    1662:	3c d0       	rcall	.+120    	; 0x16dc <__ultoa_invert+0x9c>
    1664:	67 0f       	add	r22, r23
    1666:	78 1f       	adc	r23, r24
    1668:	89 1f       	adc	r24, r25
    166a:	9a 1f       	adc	r25, r26
    166c:	a1 1d       	adc	r26, r1
    166e:	68 0f       	add	r22, r24
    1670:	79 1f       	adc	r23, r25
    1672:	8a 1f       	adc	r24, r26
    1674:	91 1d       	adc	r25, r1
    1676:	a1 1d       	adc	r26, r1
    1678:	6a 0f       	add	r22, r26
    167a:	71 1d       	adc	r23, r1
    167c:	81 1d       	adc	r24, r1
    167e:	91 1d       	adc	r25, r1
    1680:	a1 1d       	adc	r26, r1
    1682:	20 d0       	rcall	.+64     	; 0x16c4 <__ultoa_invert+0x84>
    1684:	09 f4       	brne	.+2      	; 0x1688 <__ultoa_invert+0x48>
    1686:	68 94       	set
    1688:	3f 91       	pop	r19
    168a:	2a e0       	ldi	r18, 0x0A	; 10
    168c:	26 9f       	mul	r18, r22
    168e:	11 24       	eor	r1, r1
    1690:	30 19       	sub	r19, r0
    1692:	30 5d       	subi	r19, 0xD0	; 208
    1694:	31 93       	st	Z+, r19
    1696:	de f6       	brtc	.-74     	; 0x164e <__ultoa_invert+0xe>
    1698:	cf 01       	movw	r24, r30
    169a:	08 95       	ret
    169c:	46 2f       	mov	r20, r22
    169e:	47 70       	andi	r20, 0x07	; 7
    16a0:	40 5d       	subi	r20, 0xD0	; 208
    16a2:	41 93       	st	Z+, r20
    16a4:	b3 e0       	ldi	r27, 0x03	; 3
    16a6:	0f d0       	rcall	.+30     	; 0x16c6 <__ultoa_invert+0x86>
    16a8:	c9 f7       	brne	.-14     	; 0x169c <__ultoa_invert+0x5c>
    16aa:	f6 cf       	rjmp	.-20     	; 0x1698 <__ultoa_invert+0x58>
    16ac:	46 2f       	mov	r20, r22
    16ae:	4f 70       	andi	r20, 0x0F	; 15
    16b0:	40 5d       	subi	r20, 0xD0	; 208
    16b2:	4a 33       	cpi	r20, 0x3A	; 58
    16b4:	18 f0       	brcs	.+6      	; 0x16bc <__ultoa_invert+0x7c>
    16b6:	49 5d       	subi	r20, 0xD9	; 217
    16b8:	31 fd       	sbrc	r19, 1
    16ba:	40 52       	subi	r20, 0x20	; 32
    16bc:	41 93       	st	Z+, r20
    16be:	02 d0       	rcall	.+4      	; 0x16c4 <__ultoa_invert+0x84>
    16c0:	a9 f7       	brne	.-22     	; 0x16ac <__ultoa_invert+0x6c>
    16c2:	ea cf       	rjmp	.-44     	; 0x1698 <__ultoa_invert+0x58>
    16c4:	b4 e0       	ldi	r27, 0x04	; 4
    16c6:	a6 95       	lsr	r26
    16c8:	97 95       	ror	r25
    16ca:	87 95       	ror	r24
    16cc:	77 95       	ror	r23
    16ce:	67 95       	ror	r22
    16d0:	ba 95       	dec	r27
    16d2:	c9 f7       	brne	.-14     	; 0x16c6 <__ultoa_invert+0x86>
    16d4:	00 97       	sbiw	r24, 0x00	; 0
    16d6:	61 05       	cpc	r22, r1
    16d8:	71 05       	cpc	r23, r1
    16da:	08 95       	ret
    16dc:	9b 01       	movw	r18, r22
    16de:	ac 01       	movw	r20, r24
    16e0:	0a 2e       	mov	r0, r26
    16e2:	06 94       	lsr	r0
    16e4:	57 95       	ror	r21
    16e6:	47 95       	ror	r20
    16e8:	37 95       	ror	r19
    16ea:	27 95       	ror	r18
    16ec:	ba 95       	dec	r27
    16ee:	c9 f7       	brne	.-14     	; 0x16e2 <__ultoa_invert+0xa2>
    16f0:	62 0f       	add	r22, r18
    16f2:	73 1f       	adc	r23, r19
    16f4:	84 1f       	adc	r24, r20
    16f6:	95 1f       	adc	r25, r21
    16f8:	a0 1d       	adc	r26, r0
    16fa:	08 95       	ret

000016fc <__prologue_saves__>:
    16fc:	2f 92       	push	r2
    16fe:	3f 92       	push	r3
    1700:	4f 92       	push	r4
    1702:	5f 92       	push	r5
    1704:	6f 92       	push	r6
    1706:	7f 92       	push	r7
    1708:	8f 92       	push	r8
    170a:	9f 92       	push	r9
    170c:	af 92       	push	r10
    170e:	bf 92       	push	r11
    1710:	cf 92       	push	r12
    1712:	df 92       	push	r13
    1714:	ef 92       	push	r14
    1716:	ff 92       	push	r15
    1718:	0f 93       	push	r16
    171a:	1f 93       	push	r17
    171c:	cf 93       	push	r28
    171e:	df 93       	push	r29
    1720:	cd b7       	in	r28, 0x3d	; 61
    1722:	de b7       	in	r29, 0x3e	; 62
    1724:	ca 1b       	sub	r28, r26
    1726:	db 0b       	sbc	r29, r27
    1728:	0f b6       	in	r0, 0x3f	; 63
    172a:	f8 94       	cli
    172c:	de bf       	out	0x3e, r29	; 62
    172e:	0f be       	out	0x3f, r0	; 63
    1730:	cd bf       	out	0x3d, r28	; 61
    1732:	09 94       	ijmp

00001734 <__epilogue_restores__>:
    1734:	2a 88       	ldd	r2, Y+18	; 0x12
    1736:	39 88       	ldd	r3, Y+17	; 0x11
    1738:	48 88       	ldd	r4, Y+16	; 0x10
    173a:	5f 84       	ldd	r5, Y+15	; 0x0f
    173c:	6e 84       	ldd	r6, Y+14	; 0x0e
    173e:	7d 84       	ldd	r7, Y+13	; 0x0d
    1740:	8c 84       	ldd	r8, Y+12	; 0x0c
    1742:	9b 84       	ldd	r9, Y+11	; 0x0b
    1744:	aa 84       	ldd	r10, Y+10	; 0x0a
    1746:	b9 84       	ldd	r11, Y+9	; 0x09
    1748:	c8 84       	ldd	r12, Y+8	; 0x08
    174a:	df 80       	ldd	r13, Y+7	; 0x07
    174c:	ee 80       	ldd	r14, Y+6	; 0x06
    174e:	fd 80       	ldd	r15, Y+5	; 0x05
    1750:	0c 81       	ldd	r16, Y+4	; 0x04
    1752:	1b 81       	ldd	r17, Y+3	; 0x03
    1754:	aa 81       	ldd	r26, Y+2	; 0x02
    1756:	b9 81       	ldd	r27, Y+1	; 0x01
    1758:	ce 0f       	add	r28, r30
    175a:	d1 1d       	adc	r29, r1
    175c:	0f b6       	in	r0, 0x3f	; 63
    175e:	f8 94       	cli
    1760:	de bf       	out	0x3e, r29	; 62
    1762:	0f be       	out	0x3f, r0	; 63
    1764:	cd bf       	out	0x3d, r28	; 61
    1766:	ed 01       	movw	r28, r26
    1768:	08 95       	ret

0000176a <_exit>:
    176a:	f8 94       	cli

0000176c <__stop_program>:
    176c:	ff cf       	rjmp	.-2      	; 0x176c <__stop_program>
