
Ping Pong_6_2.elf:     file format elf32-avr

Sections:
Idx Name          Size      VMA       LMA       File off  Algn
  0 .data         000001d8  00800100  000024d0  00002564  2**0
                  CONTENTS, ALLOC, LOAD, DATA
  1 .text         000024d0  00000000  00000000  00000094  2**1
                  CONTENTS, ALLOC, LOAD, READONLY, CODE
  2 .bss          0000001c  008002d8  008002d8  0000273c  2**0
                  ALLOC
  3 .comment      0000005c  00000000  00000000  0000273c  2**0
                  CONTENTS, READONLY
  4 .debug_aranges 00000338  00000000  00000000  00002798  2**0
                  CONTENTS, READONLY, DEBUGGING
  5 .debug_info   0000466c  00000000  00000000  00002ad0  2**0
                  CONTENTS, READONLY, DEBUGGING
  6 .debug_abbrev 0000131a  00000000  00000000  0000713c  2**0
                  CONTENTS, READONLY, DEBUGGING
  7 .debug_line   00002fd6  00000000  00000000  00008456  2**0
                  CONTENTS, READONLY, DEBUGGING
  8 .debug_frame  0000088c  00000000  00000000  0000b42c  2**2
                  CONTENTS, READONLY, DEBUGGING
  9 .debug_str    000097c3  00000000  00000000  0000bcb8  2**0
                  CONTENTS, READONLY, DEBUGGING
 10 .debug_loc    00001f19  00000000  00000000  0001547b  2**0
                  CONTENTS, READONLY, DEBUGGING
 11 .debug_ranges 00000308  00000000  00000000  00017394  2**0
                  CONTENTS, READONLY, DEBUGGING
 12 .debug_macro  00001628  00000000  00000000  0001769c  2**0
                  CONTENTS, READONLY, DEBUGGING

Disassembly of section .text:

00000000 <__vectors>:
       0:	5f c3       	rjmp	.+1726   	; 0x6c0 <__ctors_end>
       2:	00 00       	nop
       4:	7a c3       	rjmp	.+1780   	; 0x6fa <__bad_interrupt>
       6:	00 00       	nop
       8:	78 c3       	rjmp	.+1776   	; 0x6fa <__bad_interrupt>
       a:	00 00       	nop
       c:	76 c3       	rjmp	.+1772   	; 0x6fa <__bad_interrupt>
       e:	00 00       	nop
      10:	74 c3       	rjmp	.+1768   	; 0x6fa <__bad_interrupt>
      12:	00 00       	nop
      14:	72 c3       	rjmp	.+1764   	; 0x6fa <__bad_interrupt>
      16:	00 00       	nop
      18:	70 c3       	rjmp	.+1760   	; 0x6fa <__bad_interrupt>
      1a:	00 00       	nop
      1c:	6e c3       	rjmp	.+1756   	; 0x6fa <__bad_interrupt>
      1e:	00 00       	nop
      20:	6c c3       	rjmp	.+1752   	; 0x6fa <__bad_interrupt>
      22:	00 00       	nop
      24:	6a c3       	rjmp	.+1748   	; 0x6fa <__bad_interrupt>
      26:	00 00       	nop
      28:	68 c3       	rjmp	.+1744   	; 0x6fa <__bad_interrupt>
      2a:	00 00       	nop
      2c:	66 c3       	rjmp	.+1740   	; 0x6fa <__bad_interrupt>
      2e:	00 00       	nop
      30:	64 c3       	rjmp	.+1736   	; 0x6fa <__bad_interrupt>
      32:	00 00       	nop
      34:	62 c3       	rjmp	.+1732   	; 0x6fa <__bad_interrupt>
      36:	00 00       	nop
      38:	60 c3       	rjmp	.+1728   	; 0x6fa <__bad_interrupt>
      3a:	00 00       	nop
      3c:	5e c3       	rjmp	.+1724   	; 0x6fa <__bad_interrupt>
      3e:	00 00       	nop
      40:	5c c3       	rjmp	.+1720   	; 0x6fa <__bad_interrupt>
      42:	00 00       	nop
      44:	5a c3       	rjmp	.+1716   	; 0x6fa <__bad_interrupt>
      46:	00 00       	nop
      48:	58 c3       	rjmp	.+1712   	; 0x6fa <__bad_interrupt>
      4a:	00 00       	nop
      4c:	56 c3       	rjmp	.+1708   	; 0x6fa <__bad_interrupt>
      4e:	00 00       	nop
      50:	54 c3       	rjmp	.+1704   	; 0x6fa <__bad_interrupt>
      52:	00 00       	nop
      54:	52 c3       	rjmp	.+1700   	; 0x6fa <__bad_interrupt>
      56:	00 00       	nop
      58:	50 c3       	rjmp	.+1696   	; 0x6fa <__bad_interrupt>
      5a:	00 00       	nop
      5c:	4e c3       	rjmp	.+1692   	; 0x6fa <__bad_interrupt>
      5e:	00 00       	nop
      60:	4c c3       	rjmp	.+1688   	; 0x6fa <__bad_interrupt>
      62:	00 00       	nop
      64:	4a c3       	rjmp	.+1684   	; 0x6fa <__bad_interrupt>
      66:	00 00       	nop
      68:	48 c3       	rjmp	.+1680   	; 0x6fa <__bad_interrupt>
      6a:	00 00       	nop
      6c:	46 c3       	rjmp	.+1676   	; 0x6fa <__bad_interrupt>
	...

00000070 <__trampolines_end>:
      70:	00 00       	nop
      72:	00 00       	nop
      74:	00 5c       	subi	r16, 0xC0	; 192
      76:	00 00       	nop
      78:	0c 00       	.word	0x000c	; ????
      7a:	0c 00       	.word	0x000c	; ????
      7c:	7c 28       	or	r7, r12
      7e:	7c 28       	or	r7, r12
      80:	58 dc       	rcall	.-1872   	; 0xfffff932 <__eeprom_end+0xff7ef932>
      82:	68 00       	.word	0x0068	; ????
      84:	24 10       	cpse	r2, r4
      86:	48 00       	.word	0x0048	; ????
      88:	28 54       	subi	r18, 0x48	; 72
      8a:	28 40       	sbci	r18, 0x08	; 8
      8c:	00 0c       	add	r0, r0
      8e:	00 00       	nop
      90:	00 78       	andi	r16, 0x80	; 128
      92:	84 00       	.word	0x0084	; ????
      94:	84 78       	andi	r24, 0x84	; 132
      96:	00 00       	nop
      98:	54 38       	cpi	r21, 0x84	; 132
      9a:	54 00       	.word	0x0054	; ????
      9c:	10 7c       	andi	r17, 0xC0	; 192
      9e:	10 00       	.word	0x0010	; ????
      a0:	80 40       	sbci	r24, 0x00	; 0
      a2:	00 00       	nop
      a4:	10 10       	cpse	r1, r0
      a6:	10 00       	.word	0x0010	; ????
      a8:	00 40       	sbci	r16, 0x00	; 0
      aa:	00 00       	nop
      ac:	60 10       	cpse	r6, r0
      ae:	0c 00       	.word	0x000c	; ????
      b0:	38 54       	subi	r19, 0x48	; 72
      b2:	38 00       	.word	0x0038	; ????
      b4:	48 7c       	andi	r20, 0xC8	; 200
      b6:	40 00       	.word	0x0040	; ????
      b8:	48 64       	ori	r20, 0x48	; 72
      ba:	58 00       	.word	0x0058	; ????
      bc:	44 54       	subi	r20, 0x44	; 68
      be:	2c 00       	.word	0x002c	; ????
      c0:	1c 10       	cpse	r1, r12
      c2:	7c 00       	.word	0x007c	; ????
      c4:	5c 54       	subi	r21, 0x4C	; 76
      c6:	24 00       	.word	0x0024	; ????
      c8:	38 54       	subi	r19, 0x48	; 72
      ca:	24 00       	.word	0x0024	; ????
      cc:	64 14       	cp	r6, r4
      ce:	0c 00       	.word	0x000c	; ????
      d0:	68 54       	subi	r22, 0x48	; 72
      d2:	2c 00       	.word	0x002c	; ????
      d4:	48 54       	subi	r20, 0x48	; 72
      d6:	38 00       	.word	0x0038	; ????
      d8:	00 48       	sbci	r16, 0x80	; 128
      da:	00 00       	nop
      dc:	80 48       	sbci	r24, 0x80	; 128
      de:	00 00       	nop
      e0:	10 28       	or	r1, r0
      e2:	44 00       	.word	0x0044	; ????
      e4:	28 28       	or	r2, r8
      e6:	28 00       	.word	0x0028	; ????
      e8:	44 28       	or	r4, r4
      ea:	10 00       	.word	0x0010	; ????
      ec:	04 54       	subi	r16, 0x44	; 68
      ee:	08 00       	.word	0x0008	; ????
      f0:	38 44       	sbci	r19, 0x48	; 72
      f2:	5c 00       	.word	0x005c	; ????
      f4:	78 14       	cp	r7, r8
      f6:	78 00       	.word	0x0078	; ????
      f8:	7c 54       	subi	r23, 0x4C	; 76
      fa:	28 00       	.word	0x0028	; ????
      fc:	38 44       	sbci	r19, 0x48	; 72
      fe:	28 00       	.word	0x0028	; ????
     100:	7c 44       	sbci	r23, 0x4C	; 76
     102:	38 00       	.word	0x0038	; ????
     104:	7c 54       	subi	r23, 0x4C	; 76
     106:	44 00       	.word	0x0044	; ????
     108:	7c 14       	cp	r7, r12
     10a:	04 00       	.word	0x0004	; ????
     10c:	38 44       	sbci	r19, 0x48	; 72
     10e:	74 00       	.word	0x0074	; ????
     110:	7c 10       	cpse	r7, r12
     112:	7c 00       	.word	0x007c	; ????
     114:	44 7c       	andi	r20, 0xC4	; 196
     116:	44 00       	.word	0x0044	; ????
     118:	20 40       	sbci	r18, 0x00	; 0
     11a:	3c 00       	.word	0x003c	; ????
     11c:	7c 10       	cpse	r7, r12
     11e:	6c 00       	.word	0x006c	; ????
     120:	7c 40       	sbci	r23, 0x0C	; 12
     122:	40 00       	.word	0x0040	; ????
     124:	7c 18       	sub	r7, r12
     126:	7c 00       	.word	0x007c	; ????
     128:	78 10       	cpse	r7, r8
     12a:	3c 00       	.word	0x003c	; ????
     12c:	38 44       	sbci	r19, 0x48	; 72
     12e:	38 00       	.word	0x0038	; ????
     130:	7c 14       	cp	r7, r12
     132:	08 00       	.word	0x0008	; ????
     134:	38 44       	sbci	r19, 0x48	; 72
     136:	b8 00       	.word	0x00b8	; ????
     138:	7c 14       	cp	r7, r12
     13a:	68 00       	.word	0x0068	; ????
     13c:	48 54       	subi	r20, 0x48	; 72
     13e:	24 00       	.word	0x0024	; ????
     140:	04 7c       	andi	r16, 0xC4	; 196
     142:	04 00       	.word	0x0004	; ????
     144:	7c 40       	sbci	r23, 0x0C	; 12
     146:	7c 00       	.word	0x007c	; ????
     148:	3c 60       	ori	r19, 0x0C	; 12
     14a:	3c 00       	.word	0x003c	; ????
     14c:	7c 30       	cpi	r23, 0x0C	; 12
     14e:	7c 00       	.word	0x007c	; ????
     150:	6c 10       	cpse	r6, r12
     152:	6c 00       	.word	0x006c	; ????
     154:	0c 70       	andi	r16, 0x0C	; 12
     156:	0c 00       	.word	0x000c	; ????
     158:	64 54       	subi	r22, 0x44	; 68
     15a:	4c 00       	.word	0x004c	; ????
     15c:	00 7c       	andi	r16, 0xC0	; 192
     15e:	44 00       	.word	0x0044	; ????
     160:	0c 10       	cpse	r0, r12
     162:	60 00       	.word	0x0060	; ????
     164:	44 7c       	andi	r20, 0xC4	; 196
     166:	00 00       	nop
     168:	08 04       	cpc	r0, r8
     16a:	08 00       	.word	0x0008	; ????
     16c:	80 80       	ld	r8, Z
     16e:	80 00       	.word	0x0080	; ????
     170:	00 04       	cpc	r0, r0
     172:	08 00       	.word	0x0008	; ????
     174:	30 48       	sbci	r19, 0x80	; 128
     176:	78 00       	.word	0x0078	; ????
     178:	7c 48       	sbci	r23, 0x8C	; 140
     17a:	30 00       	.word	0x0030	; ????
     17c:	30 48       	sbci	r19, 0x80	; 128
     17e:	48 00       	.word	0x0048	; ????
     180:	30 48       	sbci	r19, 0x80	; 128
     182:	7c 00       	.word	0x007c	; ????
     184:	30 68       	ori	r19, 0x80	; 128
     186:	50 00       	.word	0x0050	; ????
     188:	10 78       	andi	r17, 0x80	; 128
     18a:	14 00       	.word	0x0014	; ????
     18c:	90 a8       	ldd	r9, Z+48	; 0x30
     18e:	78 00       	.word	0x0078	; ????
     190:	7c 08       	sbc	r7, r12
     192:	70 00       	.word	0x0070	; ????
     194:	50 74       	andi	r21, 0x40	; 64
     196:	40 00       	.word	0x0040	; ????
     198:	80 80       	ld	r8, Z
     19a:	74 00       	.word	0x0074	; ????
     19c:	7c 10       	cpse	r7, r12
     19e:	68 00       	.word	0x0068	; ????
     1a0:	44 7c       	andi	r20, 0xC4	; 196
     1a2:	40 00       	.word	0x0040	; ????
     1a4:	78 10       	cpse	r7, r8
     1a6:	78 00       	.word	0x0078	; ????
     1a8:	78 08       	sbc	r7, r8
     1aa:	70 00       	.word	0x0070	; ????
     1ac:	30 48       	sbci	r19, 0x80	; 128
     1ae:	30 00       	.word	0x0030	; ????
     1b0:	f8 28       	or	r15, r8
     1b2:	10 00       	.word	0x0010	; ????
     1b4:	30 48       	sbci	r19, 0x80	; 128
     1b6:	f8 00       	.word	0x00f8	; ????
     1b8:	78 10       	cpse	r7, r8
     1ba:	08 00       	.word	0x0008	; ????
     1bc:	50 58       	subi	r21, 0x80	; 128
     1be:	28 00       	.word	0x0028	; ????
     1c0:	08 3c       	cpi	r16, 0xC8	; 200
     1c2:	48 00       	.word	0x0048	; ????
     1c4:	38 40       	sbci	r19, 0x08	; 8
     1c6:	78 00       	.word	0x0078	; ????
     1c8:	38 40       	sbci	r19, 0x08	; 8
     1ca:	38 00       	.word	0x0038	; ????
     1cc:	78 20       	and	r7, r8
     1ce:	78 00       	.word	0x0078	; ????
     1d0:	48 30       	cpi	r20, 0x08	; 8
     1d2:	48 00       	.word	0x0048	; ????
     1d4:	98 a0       	ldd	r9, Y+32	; 0x20
     1d6:	78 00       	.word	0x0078	; ????
     1d8:	48 68       	ori	r20, 0x88	; 136
     1da:	58 00       	.word	0x0058	; ????
     1dc:	10 78       	andi	r17, 0x80	; 128
     1de:	84 00       	.word	0x0084	; ????
     1e0:	00 7c       	andi	r16, 0xC0	; 192
     1e2:	00 00       	nop
     1e4:	84 78       	andi	r24, 0x84	; 132
     1e6:	10 00       	.word	0x0010	; ????
     1e8:	08 04       	cpc	r0, r8
     1ea:	08 04       	cpc	r0, r8

000001ec <font5>:
     1ec:	00 00 00 00 00 00 00 5f 00 00 00 07 00 07 00 14     ......._........
     1fc:	7f 14 7f 14 24 2a 7f 2a 12 23 13 08 64 62 36 49     ....$*.*.#..db6I
     20c:	55 22 50 00 05 03 00 00 00 1c 22 41 00 00 41 22     U"P......."A..A"
     21c:	1c 00 08 2a 1c 2a 08 08 08 3e 08 08 00 50 30 00     ...*.*...>...P0.
     22c:	00 08 08 08 08 08 00 60 60 00 00 20 10 08 04 02     .......``.. ....
     23c:	3e 51 49 45 3e 00 42 7f 40 00 42 61 51 49 46 21     >QIE>.B.@.BaQIF!
     24c:	41 45 4b 31 18 14 12 7f 10 27 45 45 45 39 3c 4a     AEK1.....'EEE9<J
     25c:	49 49 30 01 71 09 05 03 36 49 49 49 36 06 49 49     II0.q...6III6.II
     26c:	29 1e 00 36 36 00 00 00 56 36 00 00 00 08 14 22     )..66...V6....."
     27c:	41 14 14 14 14 14 41 22 14 08 00 02 01 51 09 06     A.....A".....Q..
     28c:	32 49 79 41 3e 7e 11 11 11 7e 7f 49 49 49 36 3e     2IyA>~...~.III6>
     29c:	41 41 41 22 7f 41 41 22 1c 7f 49 49 49 41 7f 09     AAA".AA"..IIIA..
     2ac:	09 01 01 3e 41 41 51 32 7f 08 08 08 7f 00 41 7f     ...>AAQ2......A.
     2bc:	41 00 20 40 41 3f 01 7f 08 14 22 41 7f 40 40 40     A. @A?...."A.@@@
     2cc:	40 7f 02 04 02 7f 7f 04 08 10 7f 3e 41 41 41 3e     @..........>AAA>
     2dc:	7f 09 09 09 06 3e 41 51 21 5e 7f 09 19 29 46 46     .....>AQ!^...)FF
     2ec:	49 49 49 31 01 01 7f 01 01 3f 40 40 40 3f 1f 20     III1.....?@@@?. 
     2fc:	40 20 1f 7f 20 18 20 7f 63 14 08 14 63 03 04 78     @ .. . .c...c..x
     30c:	04 03 61 51 49 45 43 00 00 7f 41 41 02 04 08 10     ..aQIEC...AA....
     31c:	20 41 41 7f 00 00 04 02 01 02 04 40 40 40 40 40      AA........@@@@@
     32c:	00 01 02 04 00 20 54 54 54 78 7f 48 44 44 38 38     ..... TTTx.HDD88
     33c:	44 44 44 20 38 44 44 48 7f 38 54 54 54 18 08 7e     DDD 8DDH.8TTT..~
     34c:	09 01 02 08 14 54 54 3c 7f 08 04 04 78 00 44 7d     .....TT<....x.D}
     35c:	40 00 20 40 44 3d 00 00 7f 10 28 44 00 41 7f 40     @. @D=....(D.A.@
     36c:	00 7c 04 18 04 78 7c 08 04 04 78 38 44 44 44 38     .|...x|...x8DDD8
     37c:	7c 14 14 14 08 08 14 14 18 7c 7c 08 04 04 08 48     |........||....H
     38c:	54 54 54 20 04 3f 44 40 20 3c 40 40 20 7c 1c 20     TTT .?D@ <@@ |. 
     39c:	40 20 1c 3c 40 30 40 3c 44 28 10 28 44 0c 50 50     @ .<@0@<D(.(D.PP
     3ac:	50 3c 44 64 54 4c 44 00 08 36 41 00 00 00 7f 00     P<DdTLD..6A.....
     3bc:	00 00 41 36 08 00 02 01 03 02 01                    ..A6.......

000003c7 <font8>:
	...
     3cf:	00 06 5f 5f 06 00 00 00 00 07 07 00 07 07 00 00     ..__............
     3df:	14 7f 7f 14 7f 7f 14 00 24 2e 6b 6b 3a 12 00 00     ........$.kk:...
     3ef:	46 66 30 18 0c 66 62 00 30 7a 4f 5d 37 7a 48 00     Ff0..fb.0zO]7zH.
     3ff:	04 07 03 00 00 00 00 00 00 1c 3e 63 41 00 00 00     ..........>cA...
     40f:	00 41 63 3e 1c 00 00 00 08 2a 3e 1c 1c 3e 2a 08     .Ac>.....*>..>*.
     41f:	08 08 3e 3e 08 08 00 00 00 a0 e0 60 00 00 00 00     ..>>.......`....
     42f:	08 08 08 08 08 08 00 00 00 00 60 60 00 00 00 00     ..........``....
     43f:	60 30 18 0c 06 03 01 00 3e 7f 59 4d 7f 3e 00 00     `0......>.YM.>..
     44f:	42 42 7f 7f 40 40 00 00 62 73 59 49 6f 66 00 00     BB..@@..bsYIof..
     45f:	22 63 49 49 7f 36 00 00 18 1c 16 13 7f 7f 10 00     "cII.6..........
     46f:	27 67 45 45 7d 39 00 00 3c 7e 4b 49 79 30 00 00     'gEE}9..<~KIy0..
     47f:	03 63 71 19 0f 07 00 00 36 7f 49 49 7f 36 00 00     .cq.....6.II.6..
     48f:	06 4f 49 69 3f 1e 00 00 00 00 6c 6c 00 00 00 00     .OIi?.....ll....
     49f:	00 a0 ec 6c 00 00 00 00 08 1c 36 63 41 00 00 00     ...l......6cA...
     4af:	14 14 14 14 14 14 00 00 00 41 63 36 1c 08 00 00     .........Ac6....
     4bf:	02 03 51 59 0f 06 00 00 3e 7f 41 5d 5d 1f 1e 00     ..QY....>.A]]...
     4cf:	7c 7e 13 13 7e 7c 00 00 41 7f 7f 49 49 7f 36 00     |~..~|..A..II.6.
     4df:	1c 3e 63 41 41 63 22 00 41 7f 7f 41 63 7f 1c 00     .>cAAc".A..Ac...
     4ef:	41 7f 7f 49 5d 41 63 00 41 7f 7f 49 1d 01 03 00     A..I]Ac.A..I....
     4ff:	1c 3e 63 41 51 73 72 00 7f 7f 08 08 7f 7f 00 00     .>cAQsr.........
     50f:	00 41 7f 7f 41 00 00 00 30 70 40 41 7f 3f 01 00     .A..A...0p@A.?..
     51f:	41 7f 7f 08 1c 77 63 00 41 7f 7f 41 40 60 70 00     A....wc.A..A@`p.
     52f:	7f 7f 06 0c 06 7f 7f 00 7f 7f 06 0c 18 7f 7f 00     ................
     53f:	1c 3e 63 41 63 3e 1c 00 41 7f 7f 49 09 0f 06 00     .>cAc>..A..I....
     54f:	1e 3f 21 71 7f 5e 00 00 41 7f 7f 19 39 6f 46 00     .?!q.^..A...9oF.
     55f:	26 67 4d 59 7b 32 00 00 03 41 7f 7f 41 03 00 00     &gMY{2...A..A...
     56f:	7f 7f 40 40 7f 7f 00 00 1f 3f 60 60 3f 1f 00 00     ..@@.....?``?...
     57f:	7f 7f 30 18 30 7f 7f 00 63 77 1c 08 1c 77 63 00     ..0.0...cw...wc.
     58f:	07 4f 78 78 4f 07 00 00 67 73 59 4d 47 63 71 00     .OxxO...gsYMGcq.
     59f:	00 7f 7f 41 41 00 00 00 01 03 06 0c 18 30 60 00     ...AA........0`.
     5af:	00 41 41 7f 7f 00 00 00 08 0c 06 03 06 0c 08 00     .AA.............
     5bf:	80 80 80 80 80 80 80 80 00 00 03 07 04 00 00 00     ................
     5cf:	20 74 54 54 3c 78 40 00 41 3f 7f 44 44 7c 38 00      tTT<x@.A?.DD|8.
     5df:	38 7c 44 44 6c 28 00 00 30 78 48 49 3f 7f 40 00     8|DDl(..0xHI?.@.
     5ef:	38 7c 54 54 5c 18 00 00 48 7e 7f 49 03 02 00 00     8|TT\...H~.I....
     5ff:	98 bc a4 a4 f8 7c 04 00 41 7f 7f 08 04 7c 78 00     .....|..A....|x.
     60f:	00 44 7d 7d 40 00 00 00 40 c4 84 fd 7d 00 00 00     .D}}@...@...}...
     61f:	41 7f 7f 10 38 6c 44 00 00 41 7f 7f 40 00 00 00     A...8lD..A..@...
     62f:	7c 7c 0c 18 0c 7c 78 00 7c 7c 04 04 7c 78 00 00     ||...|x.||..|x..
     63f:	38 7c 44 44 7c 38 00 00 84 fc f8 a4 24 3c 18 00     8|DD|8......$<..
     64f:	18 3c 24 a4 f8 fc 84 00 44 7c 78 44 1c 18 00 00     .<$.....D|xD....
     65f:	48 5c 54 54 74 24 00 00 00 04 3e 7f 44 24 00 00     H\TTt$....>.D$..
     66f:	3c 7c 40 40 3c 7c 40 00 1c 3c 60 60 3c 1c 00 00     <|@@<|@..<``<...
     67f:	3c 7c 60 30 60 7c 3c 00 44 6c 38 10 38 6c 44 00     <|`0`|<.Dl8.8lD.
     68f:	9c bc a0 a0 fc 7c 00 00 4c 64 74 5c 4c 64 00 00     .....|..Ldt\Ld..
     69f:	08 08 3e 77 41 41 00 00 00 00 00 77 77 00 00 00     ..>wAA.....ww...
     6af:	41 41 77 3e 08 08 00 00 02 03 01 03 02 03 01 00     AAw>............
	...

000006c0 <__ctors_end>:
     6c0:	11 24       	eor	r1, r1
     6c2:	1f be       	out	0x3f, r1	; 63
     6c4:	cf ef       	ldi	r28, 0xFF	; 255
     6c6:	d4 e0       	ldi	r29, 0x04	; 4
     6c8:	de bf       	out	0x3e, r29	; 62
     6ca:	cd bf       	out	0x3d, r28	; 61

000006cc <__do_copy_data>:
     6cc:	12 e0       	ldi	r17, 0x02	; 2
     6ce:	a0 e0       	ldi	r26, 0x00	; 0
     6d0:	b1 e0       	ldi	r27, 0x01	; 1
     6d2:	e0 ed       	ldi	r30, 0xD0	; 208
     6d4:	f4 e2       	ldi	r31, 0x24	; 36
     6d6:	02 c0       	rjmp	.+4      	; 0x6dc <__do_copy_data+0x10>
     6d8:	05 90       	lpm	r0, Z+
     6da:	0d 92       	st	X+, r0
     6dc:	a8 3d       	cpi	r26, 0xD8	; 216
     6de:	b1 07       	cpc	r27, r17
     6e0:	d9 f7       	brne	.-10     	; 0x6d8 <__do_copy_data+0xc>

000006e2 <__do_clear_bss>:
     6e2:	22 e0       	ldi	r18, 0x02	; 2
     6e4:	a8 ed       	ldi	r26, 0xD8	; 216
     6e6:	b2 e0       	ldi	r27, 0x02	; 2
     6e8:	01 c0       	rjmp	.+2      	; 0x6ec <.do_clear_bss_start>

000006ea <.do_clear_bss_loop>:
     6ea:	1d 92       	st	X+, r1

000006ec <.do_clear_bss_start>:
     6ec:	a4 3f       	cpi	r26, 0xF4	; 244
     6ee:	b2 07       	cpc	r27, r18
     6f0:	e1 f7       	brne	.-8      	; 0x6ea <.do_clear_bss_loop>
     6f2:	0e 94 63 0d 	call	0x1ac6	; 0x1ac6 <main>
     6f6:	0c 94 66 12 	jmp	0x24cc	; 0x24cc <_exit>

000006fa <__bad_interrupt>:
     6fa:	82 cc       	rjmp	.-1788   	; 0x0 <__vectors>

000006fc <adc_read>:
	else{
		ans = joy_adc_direction;
	}
	//printf("answer % d \n \r \n \r", ans);
	return ans;*/
}
     6fc:	9f ef       	ldi	r25, 0xFF	; 255
     6fe:	98 0f       	add	r25, r24
     700:	94 30       	cpi	r25, 0x04	; 4
     702:	58 f4       	brcc	.+22     	; 0x71a <adc_read+0x1e>
     704:	8d 5f       	subi	r24, 0xFD	; 253
     706:	80 93 00 14 	sts	0x1400, r24
     70a:	85 e3       	ldi	r24, 0x35	; 53
     70c:	8a 95       	dec	r24
     70e:	f1 f7       	brne	.-4      	; 0x70c <adc_read+0x10>
     710:	00 00       	nop
     712:	80 91 00 14 	lds	r24, 0x1400
     716:	90 e0       	ldi	r25, 0x00	; 0
     718:	08 95       	ret
     71a:	80 e0       	ldi	r24, 0x00	; 0
     71c:	90 e0       	ldi	r25, 0x00	; 0
     71e:	08 95       	ret

00000720 <adc_joystick_direction>:
     720:	84 e0       	ldi	r24, 0x04	; 4
     722:	80 93 00 14 	sts	0x1400, r24
     726:	85 e3       	ldi	r24, 0x35	; 53
     728:	8a 95       	dec	r24
     72a:	f1 f7       	brne	.-4      	; 0x728 <adc_joystick_direction+0x8>
     72c:	00 00       	nop
     72e:	e0 e0       	ldi	r30, 0x00	; 0
     730:	f4 e1       	ldi	r31, 0x14	; 20
     732:	40 81       	ld	r20, Z
     734:	50 e0       	ldi	r21, 0x00	; 0
     736:	4c 58       	subi	r20, 0x8C	; 140
     738:	51 09       	sbc	r21, r1
     73a:	85 e0       	ldi	r24, 0x05	; 5
     73c:	80 83       	st	Z, r24
     73e:	85 e3       	ldi	r24, 0x35	; 53
     740:	8a 95       	dec	r24
     742:	f1 f7       	brne	.-4      	; 0x740 <adc_joystick_direction+0x20>
     744:	00 00       	nop
     746:	20 91 00 14 	lds	r18, 0x1400
     74a:	30 e0       	ldi	r19, 0x00	; 0
     74c:	2c 58       	subi	r18, 0x8C	; 140
     74e:	31 09       	sbc	r19, r1
     750:	ba 01       	movw	r22, r20
     752:	55 23       	and	r21, r21
     754:	24 f4       	brge	.+8      	; 0x75e <adc_joystick_direction+0x3e>
     756:	66 27       	eor	r22, r22
     758:	77 27       	eor	r23, r23
     75a:	64 1b       	sub	r22, r20
     75c:	75 0b       	sbc	r23, r21
     75e:	c9 01       	movw	r24, r18
     760:	33 23       	and	r19, r19
     762:	24 f4       	brge	.+8      	; 0x76c <adc_joystick_direction+0x4c>
     764:	88 27       	eor	r24, r24
     766:	99 27       	eor	r25, r25
     768:	82 1b       	sub	r24, r18
     76a:	93 0b       	sbc	r25, r19
     76c:	68 17       	cp	r22, r24
     76e:	79 07       	cpc	r23, r25
     770:	44 f4       	brge	.+16     	; 0x782 <adc_joystick_direction+0x62>
     772:	33 23       	and	r19, r19
     774:	8c f0       	brlt	.+34     	; 0x798 <adc_joystick_direction+0x78>
     776:	12 16       	cp	r1, r18
     778:	13 06       	cpc	r1, r19
     77a:	8c f0       	brlt	.+34     	; 0x79e <adc_joystick_direction+0x7e>
     77c:	84 e0       	ldi	r24, 0x04	; 4
     77e:	90 e0       	ldi	r25, 0x00	; 0
     780:	19 c0       	rjmp	.+50     	; 0x7b4 <adc_joystick_direction+0x94>
     782:	86 17       	cp	r24, r22
     784:	97 07       	cpc	r25, r23
     786:	74 f4       	brge	.+28     	; 0x7a4 <adc_joystick_direction+0x84>
     788:	55 23       	and	r21, r21
     78a:	7c f0       	brlt	.+30     	; 0x7aa <adc_joystick_direction+0x8a>
     78c:	14 16       	cp	r1, r20
     78e:	15 06       	cpc	r1, r21
     790:	7c f0       	brlt	.+30     	; 0x7b0 <adc_joystick_direction+0x90>
     792:	84 e0       	ldi	r24, 0x04	; 4
     794:	90 e0       	ldi	r25, 0x00	; 0
     796:	0e c0       	rjmp	.+28     	; 0x7b4 <adc_joystick_direction+0x94>
     798:	83 e0       	ldi	r24, 0x03	; 3
     79a:	90 e0       	ldi	r25, 0x00	; 0
     79c:	0b c0       	rjmp	.+22     	; 0x7b4 <adc_joystick_direction+0x94>
     79e:	82 e0       	ldi	r24, 0x02	; 2
     7a0:	90 e0       	ldi	r25, 0x00	; 0
     7a2:	08 c0       	rjmp	.+16     	; 0x7b4 <adc_joystick_direction+0x94>
     7a4:	84 e0       	ldi	r24, 0x04	; 4
     7a6:	90 e0       	ldi	r25, 0x00	; 0
     7a8:	05 c0       	rjmp	.+10     	; 0x7b4 <adc_joystick_direction+0x94>
     7aa:	80 e0       	ldi	r24, 0x00	; 0
     7ac:	90 e0       	ldi	r25, 0x00	; 0
     7ae:	02 c0       	rjmp	.+4      	; 0x7b4 <adc_joystick_direction+0x94>
     7b0:	81 e0       	ldi	r24, 0x01	; 1
     7b2:	90 e0       	ldi	r25, 0x00	; 0
     7b4:	43 5e       	subi	r20, 0xE3	; 227
     7b6:	5f 4f       	sbci	r21, 0xFF	; 255
     7b8:	4b 33       	cpi	r20, 0x3B	; 59
     7ba:	51 05       	cpc	r21, r1
     7bc:	38 f4       	brcc	.+14     	; 0x7cc <adc_joystick_direction+0xac>
     7be:	23 5e       	subi	r18, 0xE3	; 227
     7c0:	3f 4f       	sbci	r19, 0xFF	; 255
     7c2:	2b 33       	cpi	r18, 0x3B	; 59
     7c4:	31 05       	cpc	r19, r1
     7c6:	10 f4       	brcc	.+4      	; 0x7cc <adc_joystick_direction+0xac>
     7c8:	84 e0       	ldi	r24, 0x04	; 4
     7ca:	90 e0       	ldi	r25, 0x00	; 0
     7cc:	08 95       	ret

000007ce <get_joy_adc_direction>:

int get_joy_adc_direction(){
	return xmem_read(JOY_DIR_ADDRESS);
     7ce:	80 e0       	ldi	r24, 0x00	; 0
     7d0:	98 e1       	ldi	r25, 0x18	; 24
     7d2:	0e 94 52 0d 	call	0x1aa4	; 0x1aa4 <xmem_read>
}
     7d6:	90 e0       	ldi	r25, 0x00	; 0
     7d8:	08 95       	ret

000007da <set_joy_adc_direction>:

void set_joy_adc_direction(int joy_adc_direction){
	xmem_write(joy_adc_direction, JOY_DIR_ADDRESS);
     7da:	60 e0       	ldi	r22, 0x00	; 0
     7dc:	78 e1       	ldi	r23, 0x18	; 24
     7de:	0c 94 4e 0d 	jmp	0x1a9c	; 0x1a9c <xmem_write>
     7e2:	08 95       	ret

000007e4 <adc_init>:




void adc_init(){
	set_joy_adc_direction(NEUTRAL);
     7e4:	84 e0       	ldi	r24, 0x04	; 4
     7e6:	90 e0       	ldi	r25, 0x00	; 0
     7e8:	f8 cf       	rjmp	.-16     	; 0x7da <set_joy_adc_direction>
     7ea:	08 95       	ret

000007ec <adc_joy_pos_changed>:
		ans = NEUTRAL;
	}
	return ans;
}

int adc_joy_pos_changed(){
     7ec:	cf 93       	push	r28
     7ee:	df 93       	push	r29
	int ans = 0;
	int joy_adc_direction = get_joy_adc_direction();
     7f0:	ee df       	rcall	.-36     	; 0x7ce <get_joy_adc_direction>
     7f2:	ec 01       	movw	r28, r24
	int previous_joy_adc_direction = joy_adc_direction;
	joy_adc_direction = adc_joystick_direction();
     7f4:	95 df       	rcall	.-214    	; 0x720 <adc_joystick_direction>

	
	if(previous_joy_adc_direction == joy_adc_direction){
     7f6:	c8 17       	cp	r28, r24
     7f8:	d9 07       	cpc	r29, r25
     7fa:	19 f4       	brne	.+6      	; 0x802 <adc_joy_pos_changed+0x16>
		ans = 5;
     7fc:	d5 e0       	ldi	r29, 0x05	; 5
     7fe:	c0 e0       	ldi	r28, 0x00	; 0
     800:	02 c0       	rjmp	.+4      	; 0x806 <adc_joy_pos_changed+0x1a>
	}
	else{
		ans = joy_adc_direction;
     802:	d8 2f       	mov	r29, r24
     804:	c9 2f       	mov	r28, r25
	}
	set_joy_adc_direction(joy_adc_direction);
     806:	e9 df       	rcall	.-46     	; 0x7da <set_joy_adc_direction>
	return ans;
}
     808:	8d 2f       	mov	r24, r29
     80a:	9c 2f       	mov	r25, r28
     80c:	df 91       	pop	r29
     80e:	cf 91       	pop	r28
     810:	08 95       	ret

00000812 <can_init>:
     812:	cf 93       	push	r28
     814:	df 93       	push	r29
     816:	cd b7       	in	r28, 0x3d	; 61
     818:	de b7       	in	r29, 0x3e	; 62
     81a:	2a 97       	sbiw	r28, 0x0a	; 10
     81c:	0f b6       	in	r0, 0x3f	; 63
     81e:	f8 94       	cli
     820:	de bf       	out	0x3e, r29	; 62
     822:	0f be       	out	0x3f, r0	; 63
     824:	cd bf       	out	0x3d, r28	; 61
     826:	d5 d3       	rcall	.+1962   	; 0xfd2 <mcp2515_init>
     828:	41 e0       	ldi	r20, 0x01	; 1
     82a:	60 e6       	ldi	r22, 0x60	; 96
     82c:	80 e6       	ldi	r24, 0x60	; 96
     82e:	f2 d3       	rcall	.+2020   	; 0x1014 <mcp2515_write>
	#else
		//round up by default
		__ticks_dc = (uint32_t)(ceil(fabs(__tmp)));
	#endif

	__builtin_avr_delay_cycles(__ticks_dc);
     830:	8f ef       	ldi	r24, 0xFF	; 255
     832:	9f e8       	ldi	r25, 0x8F	; 143
     834:	01 97       	sbiw	r24, 0x01	; 1
     836:	f1 f7       	brne	.-4      	; 0x834 <can_init+0x22>
     838:	00 c0       	rjmp	.+0      	; 0x83a <can_init+0x28>
     83a:	00 00       	nop
     83c:	41 e0       	ldi	r20, 0x01	; 1
     83e:	61 e0       	ldi	r22, 0x01	; 1
     840:	8b e2       	ldi	r24, 0x2B	; 43
     842:	0f d4       	rcall	.+2078   	; 0x1062 <mcp2515_bit_modify>
     844:	8f ef       	ldi	r24, 0xFF	; 255
     846:	9f e8       	ldi	r25, 0x8F	; 143
     848:	01 97       	sbiw	r24, 0x01	; 1
     84a:	f1 f7       	brne	.-4      	; 0x848 <can_init+0x36>
     84c:	00 c0       	rjmp	.+0      	; 0x84e <can_init+0x3c>
     84e:	00 00       	nop
     850:	40 e0       	ldi	r20, 0x00	; 0
     852:	60 ee       	ldi	r22, 0xE0	; 224
     854:	8f e0       	ldi	r24, 0x0F	; 15
     856:	05 d4       	rcall	.+2058   	; 0x1062 <mcp2515_bit_modify>
     858:	8f ef       	ldi	r24, 0xFF	; 255
     85a:	9f e8       	ldi	r25, 0x8F	; 143
     85c:	01 97       	sbiw	r24, 0x01	; 1
     85e:	f1 f7       	brne	.-4      	; 0x85c <can_init+0x4a>
     860:	00 c0       	rjmp	.+0      	; 0x862 <can_init+0x50>
     862:	00 00       	nop
     864:	4a e0       	ldi	r20, 0x0A	; 10
     866:	be 01       	movw	r22, r28
     868:	6f 5f       	subi	r22, 0xFF	; 255
     86a:	7f 4f       	sbci	r23, 0xFF	; 255
     86c:	8e e0       	ldi	r24, 0x0E	; 14
     86e:	b4 d3       	rcall	.+1896   	; 0xfd8 <mcp2515_read>
     870:	89 81       	ldd	r24, Y+1	; 0x01
     872:	80 7e       	andi	r24, 0xE0	; 224
     874:	a9 f0       	breq	.+42     	; 0x8a0 <can_init+0x8e>
     876:	1f 92       	push	r1
     878:	8f 93       	push	r24
     87a:	82 e1       	ldi	r24, 0x12	; 18
     87c:	91 e0       	ldi	r25, 0x01	; 1
     87e:	9f 93       	push	r25
     880:	8f 93       	push	r24
     882:	0e 94 4e 0e 	call	0x1c9c	; 0x1c9c <printf>
     886:	87 e7       	ldi	r24, 0x77	; 119
     888:	91 e0       	ldi	r25, 0x01	; 1
     88a:	9f 93       	push	r25
     88c:	8f 93       	push	r24
     88e:	0e 94 4e 0e 	call	0x1c9c	; 0x1c9c <printf>
     892:	0f 90       	pop	r0
     894:	0f 90       	pop	r0
     896:	0f 90       	pop	r0
     898:	0f 90       	pop	r0
     89a:	0f 90       	pop	r0
     89c:	0f 90       	pop	r0
     89e:	08 c0       	rjmp	.+16     	; 0x8b0 <can_init+0x9e>
     8a0:	86 e5       	ldi	r24, 0x56	; 86
     8a2:	91 e0       	ldi	r25, 0x01	; 1
     8a4:	9f 93       	push	r25
     8a6:	8f 93       	push	r24
     8a8:	0e 94 4e 0e 	call	0x1c9c	; 0x1c9c <printf>
     8ac:	0f 90       	pop	r0
     8ae:	0f 90       	pop	r0
     8b0:	2a 96       	adiw	r28, 0x0a	; 10
     8b2:	0f b6       	in	r0, 0x3f	; 63
     8b4:	f8 94       	cli
     8b6:	de bf       	out	0x3e, r29	; 62
     8b8:	0f be       	out	0x3f, r0	; 63
     8ba:	cd bf       	out	0x3d, r28	; 61
     8bc:	df 91       	pop	r29
     8be:	cf 91       	pop	r28
     8c0:	08 95       	ret

000008c2 <can_message_send>:
     8c2:	1f 93       	push	r17
     8c4:	cf 93       	push	r28
     8c6:	df 93       	push	r29
     8c8:	ec 01       	movw	r28, r24
     8ca:	41 e0       	ldi	r20, 0x01	; 1
     8cc:	6a 81       	ldd	r22, Y+2	; 0x02
     8ce:	85 e3       	ldi	r24, 0x35	; 53
     8d0:	a1 d3       	rcall	.+1858   	; 0x1014 <mcp2515_write>
     8d2:	41 e0       	ldi	r20, 0x01	; 1
     8d4:	68 81       	ld	r22, Y
     8d6:	81 e3       	ldi	r24, 0x31	; 49
     8d8:	9d d3       	rcall	.+1850   	; 0x1014 <mcp2515_write>
     8da:	41 e0       	ldi	r20, 0x01	; 1
     8dc:	68 81       	ld	r22, Y
     8de:	82 e3       	ldi	r24, 0x32	; 50
     8e0:	99 d3       	rcall	.+1842   	; 0x1014 <mcp2515_write>
     8e2:	8a 81       	ldd	r24, Y+2	; 0x02
     8e4:	88 23       	and	r24, r24
     8e6:	61 f0       	breq	.+24     	; 0x900 <can_message_send+0x3e>
     8e8:	10 e0       	ldi	r17, 0x00	; 0
     8ea:	fe 01       	movw	r30, r28
     8ec:	e1 0f       	add	r30, r17
     8ee:	f1 1d       	adc	r31, r1
     8f0:	41 e0       	ldi	r20, 0x01	; 1
     8f2:	63 81       	ldd	r22, Z+3	; 0x03
     8f4:	86 e3       	ldi	r24, 0x36	; 54
     8f6:	8e d3       	rcall	.+1820   	; 0x1014 <mcp2515_write>
     8f8:	1f 5f       	subi	r17, 0xFF	; 255
     8fa:	8a 81       	ldd	r24, Y+2	; 0x02
     8fc:	18 17       	cp	r17, r24
     8fe:	a8 f3       	brcs	.-22     	; 0x8ea <can_message_send+0x28>
     900:	81 e8       	ldi	r24, 0x81	; 129
     902:	9f d3       	rcall	.+1854   	; 0x1042 <mcp2515_request>
     904:	df 91       	pop	r29
     906:	cf 91       	pop	r28
     908:	1f 91       	pop	r17
     90a:	08 95       	ret

0000090c <can_data_receive>:
     90c:	ff 92       	push	r15
     90e:	0f 93       	push	r16
     910:	1f 93       	push	r17
     912:	cf 93       	push	r28
     914:	df 93       	push	r29
     916:	cd b7       	in	r28, 0x3d	; 61
     918:	de b7       	in	r29, 0x3e	; 62
     91a:	2a 97       	sbiw	r28, 0x0a	; 10
     91c:	0f b6       	in	r0, 0x3f	; 63
     91e:	f8 94       	cli
     920:	de bf       	out	0x3e, r29	; 62
     922:	0f be       	out	0x3f, r0	; 63
     924:	cd bf       	out	0x3d, r28	; 61
     926:	8c 01       	movw	r16, r24
     928:	f6 2e       	mov	r15, r22
     92a:	41 e0       	ldi	r20, 0x01	; 1
     92c:	be 01       	movw	r22, r28
     92e:	6f 5f       	subi	r22, 0xFF	; 255
     930:	7f 4f       	sbci	r23, 0xFF	; 255
     932:	8c e2       	ldi	r24, 0x2C	; 44
     934:	51 d3       	rcall	.+1698   	; 0xfd8 <mcp2515_read>
     936:	89 81       	ldd	r24, Y+1	; 0x01
     938:	81 11       	cpse	r24, r1
     93a:	0c c0       	rjmp	.+24     	; 0x954 <can_data_receive+0x48>
     93c:	1f 92       	push	r1
     93e:	1f 92       	push	r1
     940:	28 e6       	ldi	r18, 0x68	; 104
     942:	31 e0       	ldi	r19, 0x01	; 1
     944:	3f 93       	push	r19
     946:	2f 93       	push	r18
     948:	0e 94 4e 0e 	call	0x1c9c	; 0x1c9c <printf>
     94c:	0f 90       	pop	r0
     94e:	0f 90       	pop	r0
     950:	0f 90       	pop	r0
     952:	0f 90       	pop	r0
     954:	41 e0       	ldi	r20, 0x01	; 1
     956:	be 01       	movw	r22, r28
     958:	6f 5f       	subi	r22, 0xFF	; 255
     95a:	7f 4f       	sbci	r23, 0xFF	; 255
     95c:	85 e6       	ldi	r24, 0x65	; 101
     95e:	8f 0d       	add	r24, r15
     960:	3b d3       	rcall	.+1654   	; 0xfd8 <mcp2515_read>
     962:	89 81       	ldd	r24, Y+1	; 0x01
     964:	f8 01       	movw	r30, r16
     966:	82 83       	std	Z+2, r24	; 0x02
     968:	41 e0       	ldi	r20, 0x01	; 1
     96a:	be 01       	movw	r22, r28
     96c:	6f 5f       	subi	r22, 0xFF	; 255
     96e:	7f 4f       	sbci	r23, 0xFF	; 255
     970:	81 e6       	ldi	r24, 0x61	; 97
     972:	8f 0d       	add	r24, r15
     974:	31 d3       	rcall	.+1634   	; 0xfd8 <mcp2515_read>
     976:	29 81       	ldd	r18, Y+1	; 0x01
     978:	30 e0       	ldi	r19, 0x00	; 0
     97a:	f8 01       	movw	r30, r16
     97c:	31 83       	std	Z+1, r19	; 0x01
     97e:	20 83       	st	Z, r18
     980:	42 81       	ldd	r20, Z+2	; 0x02
     982:	be 01       	movw	r22, r28
     984:	6f 5f       	subi	r22, 0xFF	; 255
     986:	7f 4f       	sbci	r23, 0xFF	; 255
     988:	86 e6       	ldi	r24, 0x66	; 102
     98a:	8f 0d       	add	r24, r15
     98c:	25 d3       	rcall	.+1610   	; 0xfd8 <mcp2515_read>
     98e:	f8 01       	movw	r30, r16
     990:	92 81       	ldd	r25, Z+2	; 0x02
     992:	99 23       	and	r25, r25
     994:	61 f0       	breq	.+24     	; 0x9ae <can_data_receive+0xa2>
     996:	9e 01       	movw	r18, r28
     998:	2f 5f       	subi	r18, 0xFF	; 255
     99a:	3f 4f       	sbci	r19, 0xFF	; 255
     99c:	d8 01       	movw	r26, r16
     99e:	13 96       	adiw	r26, 0x03	; 3
     9a0:	f9 01       	movw	r30, r18
     9a2:	81 91       	ld	r24, Z+
     9a4:	8d 93       	st	X+, r24
     9a6:	8e 2f       	mov	r24, r30
     9a8:	82 1b       	sub	r24, r18
     9aa:	89 17       	cp	r24, r25
     9ac:	d0 f3       	brcs	.-12     	; 0x9a2 <can_data_receive+0x96>
     9ae:	40 e0       	ldi	r20, 0x00	; 0
     9b0:	61 e0       	ldi	r22, 0x01	; 1
     9b2:	8c e2       	ldi	r24, 0x2C	; 44
     9b4:	56 d3       	rcall	.+1708   	; 0x1062 <mcp2515_bit_modify>
     9b6:	2a 96       	adiw	r28, 0x0a	; 10
     9b8:	0f b6       	in	r0, 0x3f	; 63
     9ba:	f8 94       	cli
     9bc:	de bf       	out	0x3e, r29	; 62
     9be:	0f be       	out	0x3f, r0	; 63
     9c0:	cd bf       	out	0x3d, r28	; 61
     9c2:	df 91       	pop	r29
     9c4:	cf 91       	pop	r28
     9c6:	1f 91       	pop	r17
     9c8:	0f 91       	pop	r16
     9ca:	ff 90       	pop	r15
     9cc:	08 95       	ret

000009ce <can_get_message>:
     9ce:	0f 93       	push	r16
     9d0:	1f 93       	push	r17
     9d2:	cf 93       	push	r28
     9d4:	df 93       	push	r29
     9d6:	cd b7       	in	r28, 0x3d	; 61
     9d8:	de b7       	in	r29, 0x3e	; 62
     9da:	2a 97       	sbiw	r28, 0x0a	; 10
     9dc:	0f b6       	in	r0, 0x3f	; 63
     9de:	f8 94       	cli
     9e0:	de bf       	out	0x3e, r29	; 62
     9e2:	0f be       	out	0x3f, r0	; 63
     9e4:	cd bf       	out	0x3d, r28	; 61
     9e6:	8c 01       	movw	r16, r24
     9e8:	41 e0       	ldi	r20, 0x01	; 1
     9ea:	be 01       	movw	r22, r28
     9ec:	6f 5f       	subi	r22, 0xFF	; 255
     9ee:	7f 4f       	sbci	r23, 0xFF	; 255
     9f0:	8c e2       	ldi	r24, 0x2C	; 44
     9f2:	f2 d2       	rcall	.+1508   	; 0xfd8 <mcp2515_read>
     9f4:	89 81       	ldd	r24, Y+1	; 0x01
     9f6:	80 ff       	sbrs	r24, 0
     9f8:	0b c0       	rjmp	.+22     	; 0xa10 <can_get_message+0x42>
     9fa:	60 e0       	ldi	r22, 0x00	; 0
     9fc:	70 e0       	ldi	r23, 0x00	; 0
     9fe:	c8 01       	movw	r24, r16
     a00:	85 df       	rcall	.-246    	; 0x90c <can_data_receive>
     a02:	40 e0       	ldi	r20, 0x00	; 0
     a04:	61 e0       	ldi	r22, 0x01	; 1
     a06:	8c e2       	ldi	r24, 0x2C	; 44
     a08:	2c d3       	rcall	.+1624   	; 0x1062 <mcp2515_bit_modify>
     a0a:	81 e0       	ldi	r24, 0x01	; 1
     a0c:	90 e0       	ldi	r25, 0x00	; 0
     a0e:	0f c0       	rjmp	.+30     	; 0xa2e <can_get_message+0x60>
     a10:	81 ff       	sbrs	r24, 1
     a12:	0b c0       	rjmp	.+22     	; 0xa2a <can_get_message+0x5c>
     a14:	61 e0       	ldi	r22, 0x01	; 1
     a16:	70 e0       	ldi	r23, 0x00	; 0
     a18:	c8 01       	movw	r24, r16
     a1a:	78 df       	rcall	.-272    	; 0x90c <can_data_receive>
     a1c:	40 e0       	ldi	r20, 0x00	; 0
     a1e:	62 e0       	ldi	r22, 0x02	; 2
     a20:	8c e2       	ldi	r24, 0x2C	; 44
     a22:	1f d3       	rcall	.+1598   	; 0x1062 <mcp2515_bit_modify>
     a24:	81 e0       	ldi	r24, 0x01	; 1
     a26:	90 e0       	ldi	r25, 0x00	; 0
     a28:	02 c0       	rjmp	.+4      	; 0xa2e <can_get_message+0x60>
     a2a:	80 e0       	ldi	r24, 0x00	; 0
     a2c:	90 e0       	ldi	r25, 0x00	; 0
     a2e:	2a 96       	adiw	r28, 0x0a	; 10
     a30:	0f b6       	in	r0, 0x3f	; 63
     a32:	f8 94       	cli
     a34:	de bf       	out	0x3e, r29	; 62
     a36:	0f be       	out	0x3f, r0	; 63
     a38:	cd bf       	out	0x3d, r28	; 61
     a3a:	df 91       	pop	r29
     a3c:	cf 91       	pop	r28
     a3e:	1f 91       	pop	r17
     a40:	0f 91       	pop	r16
     a42:	08 95       	ret

00000a44 <com_navigate_display>:
		oled_reset_lives();
		com_reset_score();
	}
}

void com_gain_menu(){
     a44:	0f 93       	push	r16
     a46:	1f 93       	push	r17
     a48:	cf 93       	push	r28
     a4a:	df 93       	push	r29
     a4c:	cd b7       	in	r28, 0x3d	; 61
     a4e:	de b7       	in	r29, 0x3e	; 62
     a50:	2d 97       	sbiw	r28, 0x0d	; 13
     a52:	0f b6       	in	r0, 0x3f	; 63
     a54:	f8 94       	cli
     a56:	de bf       	out	0x3e, r29	; 62
     a58:	0f be       	out	0x3f, r0	; 63
     a5a:	cd bf       	out	0x3d, r28	; 61
     a5c:	86 b3       	in	r24, 0x16	; 22
     a5e:	c6 de       	rcall	.-628    	; 0x7ec <adc_joy_pos_changed>
     a60:	9c 01       	movw	r18, r24
     a62:	22 50       	subi	r18, 0x02	; 2
     a64:	31 09       	sbc	r19, r1
     a66:	22 30       	cpi	r18, 0x02	; 2
     a68:	31 05       	cpc	r19, r1
     a6a:	f8 f4       	brcc	.+62     	; 0xaaa <com_navigate_display+0x66>
     a6c:	60 91 e2 02 	lds	r22, 0x02E2
     a70:	70 91 e3 02 	lds	r23, 0x02E3
     a74:	a8 d4       	rcall	.+2384   	; 0x13c6 <oled_actualise_joy_pos>
     a76:	80 91 e2 02 	lds	r24, 0x02E2
     a7a:	90 91 e3 02 	lds	r25, 0x02E3
     a7e:	81 30       	cpi	r24, 0x01	; 1
     a80:	91 05       	cpc	r25, r1
     a82:	39 f0       	breq	.+14     	; 0xa92 <com_navigate_display+0x4e>
     a84:	82 30       	cpi	r24, 0x02	; 2
     a86:	91 05       	cpc	r25, r1
     a88:	31 f0       	breq	.+12     	; 0xa96 <com_navigate_display+0x52>
     a8a:	89 2b       	or	r24, r25
     a8c:	29 f4       	brne	.+10     	; 0xa98 <com_navigate_display+0x54>
     a8e:	15 d4       	rcall	.+2090   	; 0x12ba <oled_display_activity>
     a90:	03 c0       	rjmp	.+6      	; 0xa98 <com_navigate_display+0x54>
     a92:	18 d5       	rcall	.+2608   	; 0x14c4 <oled_navigate_gain_menu>
     a94:	01 c0       	rjmp	.+2      	; 0xa98 <com_navigate_display+0x54>
     a96:	e0 d4       	rcall	.+2496   	; 0x1458 <oled_print_high_score>
     a98:	2f e7       	ldi	r18, 0x7F	; 127
     a9a:	88 e3       	ldi	r24, 0x38	; 56
     a9c:	91 e0       	ldi	r25, 0x01	; 1
     a9e:	21 50       	subi	r18, 0x01	; 1
     aa0:	80 40       	sbci	r24, 0x00	; 0
     aa2:	90 40       	sbci	r25, 0x00	; 0
     aa4:	e1 f7       	brne	.-8      	; 0xa9e <com_navigate_display+0x5a>
     aa6:	00 c0       	rjmp	.+0      	; 0xaa8 <com_navigate_display+0x64>
     aa8:	00 00       	nop
     aaa:	86 b3       	in	r24, 0x16	; 22
     aac:	82 fb       	bst	r24, 2
     aae:	00 27       	eor	r16, r16
     ab0:	00 f9       	bld	r16, 0
     ab2:	10 e0       	ldi	r17, 0x00	; 0
     ab4:	80 91 0e 01 	lds	r24, 0x010E
     ab8:	90 91 0f 01 	lds	r25, 0x010F
     abc:	00 97       	sbiw	r24, 0x00	; 0
     abe:	89 f4       	brne	.+34     	; 0xae2 <com_navigate_display+0x9e>
     ac0:	01 30       	cpi	r16, 0x01	; 1
     ac2:	11 05       	cpc	r17, r1
     ac4:	09 f0       	breq	.+2      	; 0xac8 <com_navigate_display+0x84>
     ac6:	aa c0       	rjmp	.+340    	; 0xc1c <com_navigate_display+0x1d8>
     ac8:	81 e0       	ldi	r24, 0x01	; 1
     aca:	90 e0       	ldi	r25, 0x00	; 0
     acc:	90 93 0f 01 	sts	0x010F, r25
     ad0:	80 93 0e 01 	sts	0x010E, r24
     ad4:	83 ed       	ldi	r24, 0xD3	; 211
     ad6:	90 e3       	ldi	r25, 0x30	; 48
     ad8:	01 97       	sbiw	r24, 0x01	; 1
     ada:	f1 f7       	brne	.-4      	; 0xad8 <com_navigate_display+0x94>
     adc:	00 c0       	rjmp	.+0      	; 0xade <com_navigate_display+0x9a>
     ade:	00 00       	nop
     ae0:	9d c0       	rjmp	.+314    	; 0xc1c <com_navigate_display+0x1d8>
     ae2:	01 97       	sbiw	r24, 0x01	; 1
     ae4:	09 f0       	breq	.+2      	; 0xae8 <com_navigate_display+0xa4>
     ae6:	9a c0       	rjmp	.+308    	; 0xc1c <com_navigate_display+0x1d8>
     ae8:	01 2b       	or	r16, r17
     aea:	09 f0       	breq	.+2      	; 0xaee <com_navigate_display+0xaa>
     aec:	97 c0       	rjmp	.+302    	; 0xc1c <com_navigate_display+0x1d8>
     aee:	10 92 0f 01 	sts	0x010F, r1
     af2:	10 92 0e 01 	sts	0x010E, r1
     af6:	83 ed       	ldi	r24, 0xD3	; 211
     af8:	90 e3       	ldi	r25, 0x30	; 48
     afa:	01 97       	sbiw	r24, 0x01	; 1
     afc:	f1 f7       	brne	.-4      	; 0xafa <com_navigate_display+0xb6>
     afe:	00 c0       	rjmp	.+0      	; 0xb00 <com_navigate_display+0xbc>
     b00:	00 00       	nop
     b02:	80 91 e2 02 	lds	r24, 0x02E2
     b06:	90 91 e3 02 	lds	r25, 0x02E3
     b0a:	89 2b       	or	r24, r25
     b0c:	09 f0       	breq	.+2      	; 0xb10 <com_navigate_display+0xcc>
     b0e:	3c c0       	rjmp	.+120    	; 0xb88 <com_navigate_display+0x144>
     b10:	cf d3       	rcall	.+1950   	; 0x12b0 <oled_get_joy_pos>
     b12:	89 2b       	or	r24, r25
     b14:	39 f4       	brne	.+14     	; 0xb24 <com_navigate_display+0xe0>
     b16:	81 e0       	ldi	r24, 0x01	; 1
     b18:	90 e0       	ldi	r25, 0x00	; 0
     b1a:	90 93 db 02 	sts	0x02DB, r25
     b1e:	80 93 da 02 	sts	0x02DA, r24
     b22:	7c c0       	rjmp	.+248    	; 0xc1c <com_navigate_display+0x1d8>
     b24:	80 91 e2 02 	lds	r24, 0x02E2
     b28:	90 91 e3 02 	lds	r25, 0x02E3
     b2c:	89 2b       	or	r24, r25
     b2e:	61 f5       	brne	.+88     	; 0xb88 <com_navigate_display+0x144>
     b30:	bf d3       	rcall	.+1918   	; 0x12b0 <oled_get_joy_pos>
     b32:	01 97       	sbiw	r24, 0x01	; 1
     b34:	41 f4       	brne	.+16     	; 0xb46 <com_navigate_display+0x102>
     b36:	81 e0       	ldi	r24, 0x01	; 1
     b38:	90 e0       	ldi	r25, 0x00	; 0
     b3a:	90 93 e3 02 	sts	0x02E3, r25
     b3e:	80 93 e2 02 	sts	0x02E2, r24
     b42:	c0 d4       	rcall	.+2432   	; 0x14c4 <oled_navigate_gain_menu>
     b44:	6b c0       	rjmp	.+214    	; 0xc1c <com_navigate_display+0x1d8>
     b46:	80 91 e2 02 	lds	r24, 0x02E2
     b4a:	90 91 e3 02 	lds	r25, 0x02E3
     b4e:	89 2b       	or	r24, r25
     b50:	d9 f4       	brne	.+54     	; 0xb88 <com_navigate_display+0x144>
     b52:	ae d3       	rcall	.+1884   	; 0x12b0 <oled_get_joy_pos>
     b54:	02 97       	sbiw	r24, 0x02	; 2
     b56:	41 f4       	brne	.+16     	; 0xb68 <com_navigate_display+0x124>
     b58:	82 e0       	ldi	r24, 0x02	; 2
     b5a:	90 e0       	ldi	r25, 0x00	; 0
     b5c:	90 93 e3 02 	sts	0x02E3, r25
     b60:	80 93 e2 02 	sts	0x02E2, r24
     b64:	79 d4       	rcall	.+2290   	; 0x1458 <oled_print_high_score>
     b66:	5a c0       	rjmp	.+180    	; 0xc1c <com_navigate_display+0x1d8>
     b68:	80 91 e2 02 	lds	r24, 0x02E2
     b6c:	90 91 e3 02 	lds	r25, 0x02E3
     b70:	89 2b       	or	r24, r25
     b72:	51 f4       	brne	.+20     	; 0xb88 <com_navigate_display+0x144>
     b74:	9d d3       	rcall	.+1850   	; 0x12b0 <oled_get_joy_pos>
     b76:	03 97       	sbiw	r24, 0x03	; 3
     b78:	39 f4       	brne	.+14     	; 0xb88 <com_navigate_display+0x144>
     b7a:	81 e0       	ldi	r24, 0x01	; 1
     b7c:	90 e0       	ldi	r25, 0x00	; 0
     b7e:	90 93 d9 02 	sts	0x02D9, r25
     b82:	80 93 d8 02 	sts	0x02D8, r24
     b86:	4a c0       	rjmp	.+148    	; 0xc1c <com_navigate_display+0x1d8>
     b88:	80 91 e2 02 	lds	r24, 0x02E2
     b8c:	90 91 e3 02 	lds	r25, 0x02E3
     b90:	82 30       	cpi	r24, 0x02	; 2
     b92:	91 05       	cpc	r25, r1
     b94:	19 f4       	brne	.+6      	; 0xb9c <com_navigate_display+0x158>
     b96:	77 d5       	rcall	.+2798   	; 0x1686 <oled_reset_hs>
     b98:	5f d4       	rcall	.+2238   	; 0x1458 <oled_print_high_score>
     b9a:	40 c0       	rjmp	.+128    	; 0xc1c <com_navigate_display+0x1d8>
     b9c:	01 97       	sbiw	r24, 0x01	; 1
     b9e:	09 f0       	breq	.+2      	; 0xba2 <com_navigate_display+0x15e>
     ba0:	3d c0       	rjmp	.+122    	; 0xc1c <com_navigate_display+0x1d8>
     ba2:	86 d3       	rcall	.+1804   	; 0x12b0 <oled_get_joy_pos>
     ba4:	24 e0       	ldi	r18, 0x04	; 4
     ba6:	30 e0       	ldi	r19, 0x00	; 0
     ba8:	3a 83       	std	Y+2, r19	; 0x02
     baa:	29 83       	std	Y+1, r18	; 0x01
     bac:	21 e0       	ldi	r18, 0x01	; 1
     bae:	2b 83       	std	Y+3, r18	; 0x03
     bb0:	1c 82       	std	Y+4, r1	; 0x04
     bb2:	81 30       	cpi	r24, 0x01	; 1
     bb4:	91 05       	cpc	r25, r1
     bb6:	71 f0       	breq	.+28     	; 0xbd4 <com_navigate_display+0x190>
     bb8:	82 30       	cpi	r24, 0x02	; 2
     bba:	91 05       	cpc	r25, r1
     bbc:	b9 f0       	breq	.+46     	; 0xbec <com_navigate_display+0x1a8>
     bbe:	89 2b       	or	r24, r25
     bc0:	01 f5       	brne	.+64     	; 0xc02 <com_navigate_display+0x1be>
     bc2:	80 e0       	ldi	r24, 0x00	; 0
     bc4:	90 e0       	ldi	r25, 0x00	; 0
     bc6:	6f d5       	rcall	.+2782   	; 0x16a6 <oled_print_difficulty>
     bc8:	1c 82       	std	Y+4, r1	; 0x04
     bca:	10 92 e1 02 	sts	0x02E1, r1
     bce:	10 92 e0 02 	sts	0x02E0, r1
     bd2:	17 c0       	rjmp	.+46     	; 0xc02 <com_navigate_display+0x1be>
     bd4:	81 e0       	ldi	r24, 0x01	; 1
     bd6:	90 e0       	ldi	r25, 0x00	; 0
     bd8:	66 d5       	rcall	.+2764   	; 0x16a6 <oled_print_difficulty>
     bda:	81 e0       	ldi	r24, 0x01	; 1
     bdc:	8c 83       	std	Y+4, r24	; 0x04
     bde:	81 e0       	ldi	r24, 0x01	; 1
     be0:	90 e0       	ldi	r25, 0x00	; 0
     be2:	90 93 e1 02 	sts	0x02E1, r25
     be6:	80 93 e0 02 	sts	0x02E0, r24
     bea:	0b c0       	rjmp	.+22     	; 0xc02 <com_navigate_display+0x1be>
     bec:	82 e0       	ldi	r24, 0x02	; 2
     bee:	90 e0       	ldi	r25, 0x00	; 0
     bf0:	5a d5       	rcall	.+2740   	; 0x16a6 <oled_print_difficulty>
     bf2:	82 e0       	ldi	r24, 0x02	; 2
     bf4:	8c 83       	std	Y+4, r24	; 0x04
     bf6:	82 e0       	ldi	r24, 0x02	; 2
     bf8:	90 e0       	ldi	r25, 0x00	; 0
     bfa:	90 93 e1 02 	sts	0x02E1, r25
     bfe:	80 93 e0 02 	sts	0x02E0, r24
     c02:	ce 01       	movw	r24, r28
     c04:	01 96       	adiw	r24, 0x01	; 1
     c06:	5d de       	rcall	.-838    	; 0x8c2 <can_message_send>
     c08:	9f e3       	ldi	r25, 0x3F	; 63
     c0a:	22 e4       	ldi	r18, 0x42	; 66
     c0c:	8f e0       	ldi	r24, 0x0F	; 15
     c0e:	91 50       	subi	r25, 0x01	; 1
     c10:	20 40       	sbci	r18, 0x00	; 0
     c12:	80 40       	sbci	r24, 0x00	; 0
     c14:	e1 f7       	brne	.-8      	; 0xc0e <com_navigate_display+0x1ca>
     c16:	00 c0       	rjmp	.+0      	; 0xc18 <com_navigate_display+0x1d4>
     c18:	00 00       	nop
     c1a:	54 d4       	rcall	.+2216   	; 0x14c4 <oled_navigate_gain_menu>
     c1c:	b1 9b       	sbis	0x16, 1	; 22
     c1e:	8d c0       	rjmp	.+282    	; 0xd3a <com_navigate_display+0x2f6>
     c20:	80 91 e2 02 	lds	r24, 0x02E2
     c24:	90 91 e3 02 	lds	r25, 0x02E3
     c28:	89 2b       	or	r24, r25
     c2a:	09 f0       	breq	.+2      	; 0xc2e <com_navigate_display+0x1ea>
     c2c:	3c c0       	rjmp	.+120    	; 0xca6 <com_navigate_display+0x262>
     c2e:	40 d3       	rcall	.+1664   	; 0x12b0 <oled_get_joy_pos>
     c30:	89 2b       	or	r24, r25
     c32:	39 f4       	brne	.+14     	; 0xc42 <com_navigate_display+0x1fe>
     c34:	81 e0       	ldi	r24, 0x01	; 1
     c36:	90 e0       	ldi	r25, 0x00	; 0
     c38:	90 93 db 02 	sts	0x02DB, r25
     c3c:	80 93 da 02 	sts	0x02DA, r24
     c40:	7c c0       	rjmp	.+248    	; 0xd3a <com_navigate_display+0x2f6>
     c42:	80 91 e2 02 	lds	r24, 0x02E2
     c46:	90 91 e3 02 	lds	r25, 0x02E3
     c4a:	89 2b       	or	r24, r25
     c4c:	61 f5       	brne	.+88     	; 0xca6 <com_navigate_display+0x262>
     c4e:	30 d3       	rcall	.+1632   	; 0x12b0 <oled_get_joy_pos>
     c50:	01 97       	sbiw	r24, 0x01	; 1
     c52:	41 f4       	brne	.+16     	; 0xc64 <com_navigate_display+0x220>
     c54:	81 e0       	ldi	r24, 0x01	; 1
     c56:	90 e0       	ldi	r25, 0x00	; 0
     c58:	90 93 e3 02 	sts	0x02E3, r25
     c5c:	80 93 e2 02 	sts	0x02E2, r24
     c60:	31 d4       	rcall	.+2146   	; 0x14c4 <oled_navigate_gain_menu>
     c62:	6b c0       	rjmp	.+214    	; 0xd3a <com_navigate_display+0x2f6>
     c64:	80 91 e2 02 	lds	r24, 0x02E2
     c68:	90 91 e3 02 	lds	r25, 0x02E3
     c6c:	89 2b       	or	r24, r25
     c6e:	d9 f4       	brne	.+54     	; 0xca6 <com_navigate_display+0x262>
     c70:	1f d3       	rcall	.+1598   	; 0x12b0 <oled_get_joy_pos>
     c72:	02 97       	sbiw	r24, 0x02	; 2
     c74:	41 f4       	brne	.+16     	; 0xc86 <com_navigate_display+0x242>
     c76:	82 e0       	ldi	r24, 0x02	; 2
     c78:	90 e0       	ldi	r25, 0x00	; 0
     c7a:	90 93 e3 02 	sts	0x02E3, r25
     c7e:	80 93 e2 02 	sts	0x02E2, r24
     c82:	ea d3       	rcall	.+2004   	; 0x1458 <oled_print_high_score>
     c84:	5a c0       	rjmp	.+180    	; 0xd3a <com_navigate_display+0x2f6>
     c86:	80 91 e2 02 	lds	r24, 0x02E2
     c8a:	90 91 e3 02 	lds	r25, 0x02E3
     c8e:	89 2b       	or	r24, r25
     c90:	51 f4       	brne	.+20     	; 0xca6 <com_navigate_display+0x262>
     c92:	0e d3       	rcall	.+1564   	; 0x12b0 <oled_get_joy_pos>
     c94:	03 97       	sbiw	r24, 0x03	; 3
     c96:	39 f4       	brne	.+14     	; 0xca6 <com_navigate_display+0x262>
     c98:	81 e0       	ldi	r24, 0x01	; 1
     c9a:	90 e0       	ldi	r25, 0x00	; 0
     c9c:	90 93 d9 02 	sts	0x02D9, r25
     ca0:	80 93 d8 02 	sts	0x02D8, r24
     ca4:	4a c0       	rjmp	.+148    	; 0xd3a <com_navigate_display+0x2f6>
     ca6:	80 91 e2 02 	lds	r24, 0x02E2
     caa:	90 91 e3 02 	lds	r25, 0x02E3
     cae:	82 30       	cpi	r24, 0x02	; 2
     cb0:	91 05       	cpc	r25, r1
     cb2:	19 f4       	brne	.+6      	; 0xcba <com_navigate_display+0x276>
     cb4:	e8 d4       	rcall	.+2512   	; 0x1686 <oled_reset_hs>
     cb6:	d0 d3       	rcall	.+1952   	; 0x1458 <oled_print_high_score>
     cb8:	40 c0       	rjmp	.+128    	; 0xd3a <com_navigate_display+0x2f6>
     cba:	01 97       	sbiw	r24, 0x01	; 1
     cbc:	09 f0       	breq	.+2      	; 0xcc0 <com_navigate_display+0x27c>
     cbe:	3d c0       	rjmp	.+122    	; 0xd3a <com_navigate_display+0x2f6>
     cc0:	f7 d2       	rcall	.+1518   	; 0x12b0 <oled_get_joy_pos>
     cc2:	24 e0       	ldi	r18, 0x04	; 4
     cc4:	30 e0       	ldi	r19, 0x00	; 0
     cc6:	3a 83       	std	Y+2, r19	; 0x02
     cc8:	29 83       	std	Y+1, r18	; 0x01
     cca:	21 e0       	ldi	r18, 0x01	; 1
     ccc:	2b 83       	std	Y+3, r18	; 0x03
     cce:	1c 82       	std	Y+4, r1	; 0x04
     cd0:	81 30       	cpi	r24, 0x01	; 1
     cd2:	91 05       	cpc	r25, r1
     cd4:	71 f0       	breq	.+28     	; 0xcf2 <com_navigate_display+0x2ae>
     cd6:	82 30       	cpi	r24, 0x02	; 2
     cd8:	91 05       	cpc	r25, r1
     cda:	b9 f0       	breq	.+46     	; 0xd0a <com_navigate_display+0x2c6>
     cdc:	89 2b       	or	r24, r25
     cde:	01 f5       	brne	.+64     	; 0xd20 <com_navigate_display+0x2dc>
     ce0:	80 e0       	ldi	r24, 0x00	; 0
     ce2:	90 e0       	ldi	r25, 0x00	; 0
     ce4:	e0 d4       	rcall	.+2496   	; 0x16a6 <oled_print_difficulty>
     ce6:	1c 82       	std	Y+4, r1	; 0x04
     ce8:	10 92 e1 02 	sts	0x02E1, r1
     cec:	10 92 e0 02 	sts	0x02E0, r1
     cf0:	17 c0       	rjmp	.+46     	; 0xd20 <com_navigate_display+0x2dc>
     cf2:	81 e0       	ldi	r24, 0x01	; 1
     cf4:	90 e0       	ldi	r25, 0x00	; 0
     cf6:	d7 d4       	rcall	.+2478   	; 0x16a6 <oled_print_difficulty>
     cf8:	81 e0       	ldi	r24, 0x01	; 1
     cfa:	8c 83       	std	Y+4, r24	; 0x04
     cfc:	81 e0       	ldi	r24, 0x01	; 1
     cfe:	90 e0       	ldi	r25, 0x00	; 0
     d00:	90 93 e1 02 	sts	0x02E1, r25
     d04:	80 93 e0 02 	sts	0x02E0, r24
     d08:	0b c0       	rjmp	.+22     	; 0xd20 <com_navigate_display+0x2dc>
     d0a:	82 e0       	ldi	r24, 0x02	; 2
     d0c:	90 e0       	ldi	r25, 0x00	; 0
     d0e:	cb d4       	rcall	.+2454   	; 0x16a6 <oled_print_difficulty>
     d10:	82 e0       	ldi	r24, 0x02	; 2
     d12:	8c 83       	std	Y+4, r24	; 0x04
     d14:	82 e0       	ldi	r24, 0x02	; 2
     d16:	90 e0       	ldi	r25, 0x00	; 0
     d18:	90 93 e1 02 	sts	0x02E1, r25
     d1c:	80 93 e0 02 	sts	0x02E0, r24
     d20:	ce 01       	movw	r24, r28
     d22:	01 96       	adiw	r24, 0x01	; 1
     d24:	ce dd       	rcall	.-1124   	; 0x8c2 <can_message_send>
     d26:	9f e3       	ldi	r25, 0x3F	; 63
     d28:	22 e4       	ldi	r18, 0x42	; 66
     d2a:	8f e0       	ldi	r24, 0x0F	; 15
     d2c:	91 50       	subi	r25, 0x01	; 1
     d2e:	20 40       	sbci	r18, 0x00	; 0
     d30:	80 40       	sbci	r24, 0x00	; 0
     d32:	e1 f7       	brne	.-8      	; 0xd2c <com_navigate_display+0x2e8>
     d34:	00 c0       	rjmp	.+0      	; 0xd36 <com_navigate_display+0x2f2>
     d36:	00 00       	nop
     d38:	c5 d3       	rcall	.+1930   	; 0x14c4 <oled_navigate_gain_menu>
     d3a:	b0 9b       	sbis	0x16, 0	; 22
     d3c:	0c c0       	rjmp	.+24     	; 0xd56 <com_navigate_display+0x312>
     d3e:	80 91 e2 02 	lds	r24, 0x02E2
     d42:	90 91 e3 02 	lds	r25, 0x02E3
     d46:	01 97       	sbiw	r24, 0x01	; 1
     d48:	02 97       	sbiw	r24, 0x02	; 2
     d4a:	28 f4       	brcc	.+10     	; 0xd56 <com_navigate_display+0x312>
     d4c:	10 92 e3 02 	sts	0x02E3, r1
     d50:	10 92 e2 02 	sts	0x02E2, r1
     d54:	b2 d2       	rcall	.+1380   	; 0x12ba <oled_display_activity>
     d56:	2d 96       	adiw	r28, 0x0d	; 13
     d58:	0f b6       	in	r0, 0x3f	; 63
     d5a:	f8 94       	cli
     d5c:	de bf       	out	0x3e, r29	; 62
     d5e:	0f be       	out	0x3f, r0	; 63
     d60:	cd bf       	out	0x3d, r28	; 61
     d62:	df 91       	pop	r29
     d64:	cf 91       	pop	r28
     d66:	1f 91       	pop	r17
     d68:	0f 91       	pop	r16
     d6a:	08 95       	ret

00000d6c <com_play_game>:
     d6c:	0f 93       	push	r16
     d6e:	1f 93       	push	r17
     d70:	cf 93       	push	r28
     d72:	df 93       	push	r29
     d74:	cd b7       	in	r28, 0x3d	; 61
     d76:	de b7       	in	r29, 0x3e	; 62
     d78:	a7 97       	sbiw	r28, 0x27	; 39
     d7a:	0f b6       	in	r0, 0x3f	; 63
     d7c:	f8 94       	cli
     d7e:	de bf       	out	0x3e, r29	; 62
     d80:	0f be       	out	0x3f, r0	; 63
     d82:	cd bf       	out	0x3d, r28	; 61
     d84:	81 e0       	ldi	r24, 0x01	; 1
     d86:	90 e0       	ldi	r25, 0x00	; 0
     d88:	9a 83       	std	Y+2, r25	; 0x02
     d8a:	89 83       	std	Y+1, r24	; 0x01
     d8c:	21 e0       	ldi	r18, 0x01	; 1
     d8e:	2b 83       	std	Y+3, r18	; 0x03
     d90:	82 e0       	ldi	r24, 0x02	; 2
     d92:	90 e0       	ldi	r25, 0x00	; 0
     d94:	9f 87       	std	Y+15, r25	; 0x0f
     d96:	8e 87       	std	Y+14, r24	; 0x0e
     d98:	28 8b       	std	Y+16, r18	; 0x10
     d9a:	83 e0       	ldi	r24, 0x03	; 3
     d9c:	90 e0       	ldi	r25, 0x00	; 0
     d9e:	9c 8f       	std	Y+28, r25	; 0x1c
     da0:	8b 8f       	std	Y+27, r24	; 0x1b
     da2:	2d 8f       	std	Y+29, r18	; 0x1d
     da4:	81 e0       	ldi	r24, 0x01	; 1
     da6:	aa dc       	rcall	.-1708   	; 0x6fc <adc_read>
     da8:	8c 83       	std	Y+4, r24	; 0x04
     daa:	ce 01       	movw	r24, r28
     dac:	01 96       	adiw	r24, 0x01	; 1
     dae:	89 dd       	rcall	.-1262   	; 0x8c2 <can_message_send>
     db0:	84 e0       	ldi	r24, 0x04	; 4
     db2:	a4 dc       	rcall	.-1720   	; 0x6fc <adc_read>
     db4:	89 8b       	std	Y+17, r24	; 0x11
     db6:	ce 01       	movw	r24, r28
     db8:	0e 96       	adiw	r24, 0x0e	; 14
     dba:	83 dd       	rcall	.-1274   	; 0x8c2 <can_message_send>
     dbc:	86 b3       	in	r24, 0x16	; 22
     dbe:	82 fb       	bst	r24, 2
     dc0:	00 27       	eor	r16, r16
     dc2:	00 f9       	bld	r16, 0
     dc4:	10 e0       	ldi	r17, 0x00	; 0
     dc6:	80 91 0e 01 	lds	r24, 0x010E
     dca:	90 91 0f 01 	lds	r25, 0x010F
     dce:	00 97       	sbiw	r24, 0x00	; 0
     dd0:	81 f4       	brne	.+32     	; 0xdf2 <com_play_game+0x86>
     dd2:	01 30       	cpi	r16, 0x01	; 1
     dd4:	11 05       	cpc	r17, r1
     dd6:	01 f5       	brne	.+64     	; 0xe18 <com_play_game+0xac>
     dd8:	81 e0       	ldi	r24, 0x01	; 1
     dda:	90 e0       	ldi	r25, 0x00	; 0
     ddc:	90 93 0f 01 	sts	0x010F, r25
     de0:	80 93 0e 01 	sts	0x010E, r24
     de4:	83 ed       	ldi	r24, 0xD3	; 211
     de6:	90 e3       	ldi	r25, 0x30	; 48
     de8:	01 97       	sbiw	r24, 0x01	; 1
     dea:	f1 f7       	brne	.-4      	; 0xde8 <com_play_game+0x7c>
     dec:	00 c0       	rjmp	.+0      	; 0xdee <com_play_game+0x82>
     dee:	00 00       	nop
     df0:	13 c0       	rjmp	.+38     	; 0xe18 <com_play_game+0xac>
     df2:	01 97       	sbiw	r24, 0x01	; 1
     df4:	89 f4       	brne	.+34     	; 0xe18 <com_play_game+0xac>
     df6:	01 2b       	or	r16, r17
     df8:	79 f4       	brne	.+30     	; 0xe18 <com_play_game+0xac>
     dfa:	81 e0       	ldi	r24, 0x01	; 1
     dfc:	8e 8f       	std	Y+30, r24	; 0x1e
     dfe:	ce 01       	movw	r24, r28
     e00:	4b 96       	adiw	r24, 0x1b	; 27
     e02:	5f dd       	rcall	.-1346   	; 0x8c2 <can_message_send>
     e04:	10 92 0f 01 	sts	0x010F, r1
     e08:	10 92 0e 01 	sts	0x010E, r1
     e0c:	83 ed       	ldi	r24, 0xD3	; 211
     e0e:	90 e3       	ldi	r25, 0x30	; 48
     e10:	01 97       	sbiw	r24, 0x01	; 1
     e12:	f1 f7       	brne	.-4      	; 0xe10 <com_play_game+0xa4>
     e14:	00 c0       	rjmp	.+0      	; 0xe16 <com_play_game+0xaa>
     e16:	00 00       	nop
     e18:	80 91 e0 02 	lds	r24, 0x02E0
     e1c:	90 91 e1 02 	lds	r25, 0x02E1
     e20:	84 d3       	rcall	.+1800   	; 0x152a <oled_in_game_mode>
     e22:	09 d4       	rcall	.+2066   	; 0x1636 <oled_get_lives>
     e24:	89 2b       	or	r24, r25
     e26:	11 f0       	breq	.+4      	; 0xe2c <com_play_game+0xc0>
     e28:	b0 9b       	sbis	0x16, 0	; 22
     e2a:	16 c0       	rjmp	.+44     	; 0xe58 <com_play_game+0xec>
     e2c:	81 e0       	ldi	r24, 0x01	; 1
     e2e:	90 e0       	ldi	r25, 0x00	; 0
     e30:	90 93 dd 02 	sts	0x02DD, r25
     e34:	80 93 dc 02 	sts	0x02DC, r24
     e38:	2f d4       	rcall	.+2142   	; 0x1698 <oled_game_over>
     e3a:	9f eb       	ldi	r25, 0xBF	; 191
     e3c:	27 e2       	ldi	r18, 0x27	; 39
     e3e:	89 e0       	ldi	r24, 0x09	; 9
     e40:	91 50       	subi	r25, 0x01	; 1
     e42:	20 40       	sbci	r18, 0x00	; 0
     e44:	80 40       	sbci	r24, 0x00	; 0
     e46:	e1 f7       	brne	.-8      	; 0xe40 <com_play_game+0xd4>
     e48:	00 c0       	rjmp	.+0      	; 0xe4a <com_play_game+0xde>
     e4a:	00 00       	nop
     e4c:	36 d2       	rcall	.+1132   	; 0x12ba <oled_display_activity>
     e4e:	02 d4       	rcall	.+2052   	; 0x1654 <oled_reset_lives>
     e50:	10 92 df 02 	sts	0x02DF, r1
     e54:	10 92 de 02 	sts	0x02DE, r1
     e58:	a7 96       	adiw	r28, 0x27	; 39
     e5a:	0f b6       	in	r0, 0x3f	; 63
     e5c:	f8 94       	cli
     e5e:	de bf       	out	0x3e, r29	; 62
     e60:	0f be       	out	0x3f, r0	; 63
     e62:	cd bf       	out	0x3d, r28	; 61
     e64:	df 91       	pop	r29
     e66:	cf 91       	pop	r28
     e68:	1f 91       	pop	r17
     e6a:	0f 91       	pop	r16
     e6c:	08 95       	ret

00000e6e <com_reset_score>:
	
}

void com_reset_score(){
	score = 0;
     e6e:	10 92 df 02 	sts	0x02DF, r1
     e72:	10 92 de 02 	sts	0x02DE, r1
     e76:	08 95       	ret

00000e78 <com_get_score>:
}

int com_get_score(){
	return score;
}
     e78:	80 91 de 02 	lds	r24, 0x02DE
     e7c:	90 91 df 02 	lds	r25, 0x02DF
     e80:	08 95       	ret

00000e82 <com_set_score>:

void com_set_score(int score_node2){
	score = score_node2;
     e82:	90 93 df 02 	sts	0x02DF, r25
     e86:	80 93 de 02 	sts	0x02DE, r24
     e8a:	08 95       	ret

00000e8c <com_get_back>:
}

int com_get_back(){
	return back;
}
     e8c:	80 91 dc 02 	lds	r24, 0x02DC
     e90:	90 91 dd 02 	lds	r25, 0x02DD
     e94:	08 95       	ret

00000e96 <com_set_back>:

void com_set_back(){
	back = 0;
     e96:	10 92 dd 02 	sts	0x02DD, r1
     e9a:	10 92 dc 02 	sts	0x02DC, r1
     e9e:	08 95       	ret

00000ea0 <com_get_start_game>:
}

int com_get_start_game(){
	return start_game;
}
     ea0:	80 91 da 02 	lds	r24, 0x02DA
     ea4:	90 91 db 02 	lds	r25, 0x02DB
     ea8:	08 95       	ret

00000eaa <com_set_start_game>:

void com_set_start_game(){
	start_game = 0;
     eaa:	10 92 db 02 	sts	0x02DB, r1
     eae:	10 92 da 02 	sts	0x02DA, r1
     eb2:	08 95       	ret

00000eb4 <com_play_game_with_gain_control>:
}

void com_play_game_with_gain_control(){
     eb4:	cf 93       	push	r28
     eb6:	df 93       	push	r29
     eb8:	cd b7       	in	r28, 0x3d	; 61
     eba:	de b7       	in	r29, 0x3e	; 62
     ebc:	a7 97       	sbiw	r28, 0x27	; 39
     ebe:	0f b6       	in	r0, 0x3f	; 63
     ec0:	f8 94       	cli
     ec2:	de bf       	out	0x3e, r29	; 62
     ec4:	0f be       	out	0x3f, r0	; 63
     ec6:	cd bf       	out	0x3d, r28	; 61
	/*int new_val;*/
	
	struct can_message message_servo;
	message_servo.id = 1;
     ec8:	81 e0       	ldi	r24, 0x01	; 1
     eca:	90 e0       	ldi	r25, 0x00	; 0
     ecc:	9a 83       	std	Y+2, r25	; 0x02
     ece:	89 83       	std	Y+1, r24	; 0x01
	message_servo.length = 1;
     ed0:	21 e0       	ldi	r18, 0x01	; 1
     ed2:	2b 83       	std	Y+3, r18	; 0x03
	
	struct can_message message_motor;
	message_motor.id = 2;
     ed4:	82 e0       	ldi	r24, 0x02	; 2
     ed6:	90 e0       	ldi	r25, 0x00	; 0
     ed8:	9f 87       	std	Y+15, r25	; 0x0f
     eda:	8e 87       	std	Y+14, r24	; 0x0e
	message_motor.length = 1;
     edc:	28 8b       	std	Y+16, r18	; 0x10
	/*struct can_message message_solenoid;
	message_solenoid.id = 3;
	message_solenoid.length = 1;*/
	
	struct can_message message_prop_gain;
	message_prop_gain.id = 5;
     ede:	85 e0       	ldi	r24, 0x05	; 5
     ee0:	90 e0       	ldi	r25, 0x00	; 0
     ee2:	9c 8f       	std	Y+28, r25	; 0x1c
     ee4:	8b 8f       	std	Y+27, r24	; 0x1b
	message_prop_gain.length = 1;
     ee6:	2d 8f       	std	Y+29, r18	; 0x1d
	
	message_servo.data[0] = adc_read(1);
     ee8:	81 e0       	ldi	r24, 0x01	; 1
     eea:	08 dc       	rcall	.-2032   	; 0x6fc <adc_read>
     eec:	8c 83       	std	Y+4, r24	; 0x04
	can_message_send(&message_servo);
     eee:	ce 01       	movw	r24, r28
     ef0:	01 96       	adiw	r24, 0x01	; 1
     ef2:	e7 dc       	rcall	.-1586   	; 0x8c2 <can_message_send>
	
	message_motor.data[0] = adc_read(4);
     ef4:	84 e0       	ldi	r24, 0x04	; 4
     ef6:	02 dc       	rcall	.-2044   	; 0x6fc <adc_read>
     ef8:	89 8b       	std	Y+17, r24	; 0x11
	can_message_send(&message_motor);
     efa:	ce 01       	movw	r24, r28
     efc:	0e 96       	adiw	r24, 0x0e	; 14
     efe:	e1 dc       	rcall	.-1598   	; 0x8c2 <can_message_send>
	
	switch (selected_gain){
     f00:	80 91 06 01 	lds	r24, 0x0106
     f04:	90 91 07 01 	lds	r25, 0x0107
     f08:	83 30       	cpi	r24, 0x03	; 3
     f0a:	91 05       	cpc	r25, r1
     f0c:	61 f0       	breq	.+24     	; 0xf26 <com_play_game_with_gain_control+0x72>
     f0e:	84 30       	cpi	r24, 0x04	; 4
     f10:	91 05       	cpc	r25, r1
     f12:	81 f0       	breq	.+32     	; 0xf34 <com_play_game_with_gain_control+0x80>
     f14:	02 97       	sbiw	r24, 0x02	; 2
     f16:	a1 f4       	brne	.+40     	; 0xf40 <com_play_game_with_gain_control+0x8c>
		case 2:
			kp = adc_read(2);
     f18:	82 e0       	ldi	r24, 0x02	; 2
     f1a:	f0 db       	rcall	.-2080   	; 0x6fc <adc_read>
     f1c:	90 93 0d 01 	sts	0x010D, r25
     f20:	80 93 0c 01 	sts	0x010C, r24
			break;
     f24:	0d c0       	rjmp	.+26     	; 0xf40 <com_play_game_with_gain_control+0x8c>
		case 3:
			ki = adc_read(3);
     f26:	83 e0       	ldi	r24, 0x03	; 3
     f28:	e9 db       	rcall	.-2094   	; 0x6fc <adc_read>
     f2a:	90 93 0b 01 	sts	0x010B, r25
     f2e:	80 93 0a 01 	sts	0x010A, r24
			break;
     f32:	06 c0       	rjmp	.+12     	; 0xf40 <com_play_game_with_gain_control+0x8c>
		case 4:
			kd = adc_read(3);
     f34:	83 e0       	ldi	r24, 0x03	; 3
     f36:	e2 db       	rcall	.-2108   	; 0x6fc <adc_read>
     f38:	90 93 09 01 	sts	0x0109, r25
     f3c:	80 93 08 01 	sts	0x0108, r24
			break;
		default:
			break;
	}
	
	message_prop_gain.data[0] = kp;
     f40:	80 91 0c 01 	lds	r24, 0x010C
     f44:	8e 8f       	std	Y+30, r24	; 0x1e
	can_message_send(&message_prop_gain);
     f46:	ce 01       	movw	r24, r28
     f48:	4b 96       	adiw	r24, 0x1b	; 27
     f4a:	bb dc       	rcall	.-1674   	; 0x8c2 <can_message_send>
		message_solenoid.data[0] = 1;
		can_message_send(&message_solenoid);
		old_val = 0;
		_delay_ms(50);
	}*/
	oled_in_game_with_gain_control(selected_gain, kp, ki, kd);
     f4c:	20 91 08 01 	lds	r18, 0x0108
     f50:	30 91 09 01 	lds	r19, 0x0109
     f54:	40 91 0a 01 	lds	r20, 0x010A
     f58:	50 91 0b 01 	lds	r21, 0x010B
     f5c:	60 91 0c 01 	lds	r22, 0x010C
     f60:	70 91 0d 01 	lds	r23, 0x010D
     f64:	80 91 06 01 	lds	r24, 0x0106
     f68:	90 91 07 01 	lds	r25, 0x0107
     f6c:	ea d3       	rcall	.+2004   	; 0x1742 <oled_in_game_with_gain_control>
	if (PINB & 0b0001){
     f6e:	b0 9b       	sbis	0x16, 0	; 22
     f70:	0c c0       	rjmp	.+24     	; 0xf8a <com_play_game_with_gain_control+0xd6>
		back = 1;
     f72:	81 e0       	ldi	r24, 0x01	; 1
     f74:	90 e0       	ldi	r25, 0x00	; 0
     f76:	90 93 dd 02 	sts	0x02DD, r25
     f7a:	80 93 dc 02 	sts	0x02DC, r24
		oled_display_activity();
     f7e:	9d d1       	rcall	.+826    	; 0x12ba <oled_display_activity>
		oled_reset_lives();
     f80:	69 d3       	rcall	.+1746   	; 0x1654 <oled_reset_lives>
void com_gain_menu(){
	
}

void com_reset_score(){
	score = 0;
     f82:	10 92 df 02 	sts	0x02DF, r1
     f86:	10 92 de 02 	sts	0x02DE, r1
		back = 1;
		oled_display_activity();
		oled_reset_lives();
		com_reset_score();
	}
}
     f8a:	a7 96       	adiw	r28, 0x27	; 39
     f8c:	0f b6       	in	r0, 0x3f	; 63
     f8e:	f8 94       	cli
     f90:	de bf       	out	0x3e, r29	; 62
     f92:	0f be       	out	0x3f, r0	; 63
     f94:	cd bf       	out	0x3d, r28	; 61
     f96:	df 91       	pop	r29
     f98:	cf 91       	pop	r28
     f9a:	08 95       	ret

00000f9c <com_get_start_pid_control>:

int com_get_start_pid_control(){
	return start_pid_control;
}
     f9c:	80 91 d8 02 	lds	r24, 0x02D8
     fa0:	90 91 d9 02 	lds	r25, 0x02D9
     fa4:	08 95       	ret

00000fa6 <com_reset_start_pid_control>:

void com_reset_start_pid_control(){
	start_pid_control = 0;
     fa6:	10 92 d9 02 	sts	0x02D9, r1
     faa:	10 92 d8 02 	sts	0x02D8, r1
     fae:	08 95       	ret

00000fb0 <mcp2515_reset>:
     fb0:	cf 93       	push	r28
     fb2:	df 93       	push	r29
     fb4:	1f 92       	push	r1
     fb6:	cd b7       	in	r28, 0x3d	; 61
     fb8:	de b7       	in	r29, 0x3e	; 62
     fba:	c4 98       	cbi	0x18, 4	; 24
     fbc:	80 ec       	ldi	r24, 0xC0	; 192
     fbe:	89 83       	std	Y+1, r24	; 0x01
     fc0:	61 e0       	ldi	r22, 0x01	; 1
     fc2:	ce 01       	movw	r24, r28
     fc4:	01 96       	adiw	r24, 0x01	; 1
     fc6:	3c d5       	rcall	.+2680   	; 0x1a40 <spi_write>
     fc8:	c4 9a       	sbi	0x18, 4	; 24
     fca:	0f 90       	pop	r0
     fcc:	df 91       	pop	r29
     fce:	cf 91       	pop	r28
     fd0:	08 95       	ret

00000fd2 <mcp2515_init>:
     fd2:	0b d5       	rcall	.+2582   	; 0x19ea <spi_init>
     fd4:	ed cf       	rjmp	.-38     	; 0xfb0 <mcp2515_reset>
     fd6:	08 95       	ret

00000fd8 <mcp2515_read>:
     fd8:	ff 92       	push	r15
     fda:	0f 93       	push	r16
     fdc:	1f 93       	push	r17
     fde:	cf 93       	push	r28
     fe0:	df 93       	push	r29
     fe2:	00 d0       	rcall	.+0      	; 0xfe4 <mcp2515_read+0xc>
     fe4:	cd b7       	in	r28, 0x3d	; 61
     fe6:	de b7       	in	r29, 0x3e	; 62
     fe8:	8b 01       	movw	r16, r22
     fea:	f4 2e       	mov	r15, r20
     fec:	c4 98       	cbi	0x18, 4	; 24
     fee:	93 e0       	ldi	r25, 0x03	; 3
     ff0:	99 83       	std	Y+1, r25	; 0x01
     ff2:	8a 83       	std	Y+2, r24	; 0x02
     ff4:	62 e0       	ldi	r22, 0x02	; 2
     ff6:	ce 01       	movw	r24, r28
     ff8:	01 96       	adiw	r24, 0x01	; 1
     ffa:	22 d5       	rcall	.+2628   	; 0x1a40 <spi_write>
     ffc:	6f 2d       	mov	r22, r15
     ffe:	c8 01       	movw	r24, r16
    1000:	fa d4       	rcall	.+2548   	; 0x19f6 <spi_read>
    1002:	c4 9a       	sbi	0x18, 4	; 24
    1004:	0f 90       	pop	r0
    1006:	0f 90       	pop	r0
    1008:	df 91       	pop	r29
    100a:	cf 91       	pop	r28
    100c:	1f 91       	pop	r17
    100e:	0f 91       	pop	r16
    1010:	ff 90       	pop	r15
    1012:	08 95       	ret

00001014 <mcp2515_write>:
    1014:	cf 93       	push	r28
    1016:	df 93       	push	r29
    1018:	00 d0       	rcall	.+0      	; 0x101a <mcp2515_write+0x6>
    101a:	1f 92       	push	r1
    101c:	cd b7       	in	r28, 0x3d	; 61
    101e:	de b7       	in	r29, 0x3e	; 62
    1020:	c4 98       	cbi	0x18, 4	; 24
    1022:	92 e0       	ldi	r25, 0x02	; 2
    1024:	99 83       	std	Y+1, r25	; 0x01
    1026:	8a 83       	std	Y+2, r24	; 0x02
    1028:	6b 83       	std	Y+3, r22	; 0x03
    102a:	62 e0       	ldi	r22, 0x02	; 2
    102c:	64 0f       	add	r22, r20
    102e:	ce 01       	movw	r24, r28
    1030:	01 96       	adiw	r24, 0x01	; 1
    1032:	06 d5       	rcall	.+2572   	; 0x1a40 <spi_write>
    1034:	c4 9a       	sbi	0x18, 4	; 24
    1036:	0f 90       	pop	r0
    1038:	0f 90       	pop	r0
    103a:	0f 90       	pop	r0
    103c:	df 91       	pop	r29
    103e:	cf 91       	pop	r28
    1040:	08 95       	ret

00001042 <mcp2515_request>:
    1042:	cf 93       	push	r28
    1044:	df 93       	push	r29
    1046:	1f 92       	push	r1
    1048:	cd b7       	in	r28, 0x3d	; 61
    104a:	de b7       	in	r29, 0x3e	; 62
    104c:	c4 98       	cbi	0x18, 4	; 24
    104e:	89 83       	std	Y+1, r24	; 0x01
    1050:	61 e0       	ldi	r22, 0x01	; 1
    1052:	ce 01       	movw	r24, r28
    1054:	01 96       	adiw	r24, 0x01	; 1
    1056:	f4 d4       	rcall	.+2536   	; 0x1a40 <spi_write>
    1058:	c4 9a       	sbi	0x18, 4	; 24
    105a:	0f 90       	pop	r0
    105c:	df 91       	pop	r29
    105e:	cf 91       	pop	r28
    1060:	08 95       	ret

00001062 <mcp2515_bit_modify>:
    1062:	cf 93       	push	r28
    1064:	df 93       	push	r29
    1066:	00 d0       	rcall	.+0      	; 0x1068 <mcp2515_bit_modify+0x6>
    1068:	00 d0       	rcall	.+0      	; 0x106a <mcp2515_bit_modify+0x8>
    106a:	cd b7       	in	r28, 0x3d	; 61
    106c:	de b7       	in	r29, 0x3e	; 62
    106e:	c4 98       	cbi	0x18, 4	; 24
    1070:	95 e0       	ldi	r25, 0x05	; 5
    1072:	99 83       	std	Y+1, r25	; 0x01
    1074:	8a 83       	std	Y+2, r24	; 0x02
    1076:	6b 83       	std	Y+3, r22	; 0x03
    1078:	4c 83       	std	Y+4, r20	; 0x04
    107a:	64 e0       	ldi	r22, 0x04	; 4
    107c:	ce 01       	movw	r24, r28
    107e:	01 96       	adiw	r24, 0x01	; 1
    1080:	df d4       	rcall	.+2494   	; 0x1a40 <spi_write>
    1082:	c4 9a       	sbi	0x18, 4	; 24
    1084:	0f 90       	pop	r0
    1086:	0f 90       	pop	r0
    1088:	0f 90       	pop	r0
    108a:	0f 90       	pop	r0
    108c:	df 91       	pop	r29
    108e:	cf 91       	pop	r28
    1090:	08 95       	ret

00001092 <oled_columb_range_select>:
void oled_set_joy_pos(int joy_pos){
	xmem_write(joy_pos, JOY_POS_ADDRESS);
}

void oled_set_high_score(int score){
	high_score = score;
    1092:	91 e2       	ldi	r25, 0x21	; 33
    1094:	90 93 00 10 	sts	0x1000, r25
    1098:	88 23       	and	r24, r24
    109a:	1c f0       	brlt	.+6      	; 0x10a2 <oled_columb_range_select+0x10>
    109c:	80 93 00 10 	sts	0x1000, r24
    10a0:	03 c0       	rjmp	.+6      	; 0x10a8 <oled_columb_range_select+0x16>
    10a2:	8f e7       	ldi	r24, 0x7F	; 127
    10a4:	80 93 00 10 	sts	0x1000, r24
    10a8:	66 23       	and	r22, r22
    10aa:	1c f0       	brlt	.+6      	; 0x10b2 <oled_columb_range_select+0x20>
    10ac:	60 93 00 10 	sts	0x1000, r22
    10b0:	08 95       	ret
    10b2:	8f e7       	ldi	r24, 0x7F	; 127
    10b4:	80 93 00 10 	sts	0x1000, r24
    10b8:	08 95       	ret

000010ba <oled_page_select>:
    10ba:	92 e2       	ldi	r25, 0x22	; 34
    10bc:	90 93 00 10 	sts	0x1000, r25
    10c0:	88 30       	cpi	r24, 0x08	; 8
    10c2:	28 f4       	brcc	.+10     	; 0x10ce <oled_page_select+0x14>
    10c4:	e0 e0       	ldi	r30, 0x00	; 0
    10c6:	f0 e1       	ldi	r31, 0x10	; 16
    10c8:	80 83       	st	Z, r24
    10ca:	80 83       	st	Z, r24
    10cc:	08 95       	ret
    10ce:	e0 e0       	ldi	r30, 0x00	; 0
    10d0:	f0 e1       	ldi	r31, 0x10	; 16
    10d2:	87 e0       	ldi	r24, 0x07	; 7
    10d4:	80 83       	st	Z, r24
    10d6:	80 83       	st	Z, r24
    10d8:	08 95       	ret

000010da <oled_clear_page>:
    10da:	88 30       	cpi	r24, 0x08	; 8
    10dc:	60 f4       	brcc	.+24     	; 0x10f6 <oled_clear_page+0x1c>
    10de:	ed df       	rcall	.-38     	; 0x10ba <oled_page_select>
    10e0:	6f e7       	ldi	r22, 0x7F	; 127
    10e2:	80 e0       	ldi	r24, 0x00	; 0
    10e4:	d6 df       	rcall	.-84     	; 0x1092 <oled_columb_range_select>
    10e6:	80 e8       	ldi	r24, 0x80	; 128
    10e8:	90 e0       	ldi	r25, 0x00	; 0
    10ea:	e0 e0       	ldi	r30, 0x00	; 0
    10ec:	f2 e1       	ldi	r31, 0x12	; 18
    10ee:	10 82       	st	Z, r1
    10f0:	01 97       	sbiw	r24, 0x01	; 1
    10f2:	00 97       	sbiw	r24, 0x00	; 0
    10f4:	e1 f7       	brne	.-8      	; 0x10ee <oled_clear_page+0x14>
    10f6:	08 95       	ret

000010f8 <oled_clear_screen>:
    10f8:	cf 93       	push	r28
    10fa:	c0 e0       	ldi	r28, 0x00	; 0
    10fc:	8c 2f       	mov	r24, r28
    10fe:	ed df       	rcall	.-38     	; 0x10da <oled_clear_page>
    1100:	cf 5f       	subi	r28, 0xFF	; 255
    1102:	c8 30       	cpi	r28, 0x08	; 8
    1104:	d9 f7       	brne	.-10     	; 0x10fc <oled_clear_screen+0x4>
    1106:	cf 91       	pop	r28
    1108:	08 95       	ret

0000110a <oled_print_char_of_size>:
    110a:	62 30       	cpi	r22, 0x02	; 2
    110c:	41 f4       	brne	.+16     	; 0x111e <oled_print_char_of_size+0x14>
    110e:	94 e0       	ldi	r25, 0x04	; 4
    1110:	89 02       	muls	r24, r25
    1112:	a0 01       	movw	r20, r0
    1114:	11 24       	eor	r1, r1
    1116:	40 51       	subi	r20, 0x10	; 16
    1118:	50 40       	sbci	r21, 0x00	; 0
    111a:	24 e0       	ldi	r18, 0x04	; 4
    111c:	25 c0       	rjmp	.+74     	; 0x1168 <oled_print_char_of_size+0x5e>
    111e:	61 30       	cpi	r22, 0x01	; 1
    1120:	89 f4       	brne	.+34     	; 0x1144 <oled_print_char_of_size+0x3a>
    1122:	48 2f       	mov	r20, r24
    1124:	55 27       	eor	r21, r21
    1126:	47 fd       	sbrc	r20, 7
    1128:	50 95       	com	r21
    112a:	40 52       	subi	r20, 0x20	; 32
    112c:	51 09       	sbc	r21, r1
    112e:	ca 01       	movw	r24, r20
    1130:	88 0f       	add	r24, r24
    1132:	99 1f       	adc	r25, r25
    1134:	88 0f       	add	r24, r24
    1136:	99 1f       	adc	r25, r25
    1138:	48 0f       	add	r20, r24
    113a:	59 1f       	adc	r21, r25
    113c:	44 51       	subi	r20, 0x14	; 20
    113e:	5e 4f       	sbci	r21, 0xFE	; 254
    1140:	25 e0       	ldi	r18, 0x05	; 5
    1142:	12 c0       	rjmp	.+36     	; 0x1168 <oled_print_char_of_size+0x5e>
    1144:	98 e0       	ldi	r25, 0x08	; 8
    1146:	89 02       	muls	r24, r25
    1148:	a0 01       	movw	r20, r0
    114a:	11 24       	eor	r1, r1
    114c:	49 53       	subi	r20, 0x39	; 57
    114e:	5d 4f       	sbci	r21, 0xFD	; 253
    1150:	28 e0       	ldi	r18, 0x08	; 8
    1152:	0a c0       	rjmp	.+20     	; 0x1168 <oled_print_char_of_size+0x5e>
    1154:	fa 01       	movw	r30, r20
    1156:	e8 0f       	add	r30, r24
    1158:	f9 1f       	adc	r31, r25
    115a:	e4 91       	lpm	r30, Z
    115c:	ec 93       	st	X, r30
    115e:	01 96       	adiw	r24, 0x01	; 1
    1160:	82 17       	cp	r24, r18
    1162:	93 07       	cpc	r25, r19
    1164:	bc f3       	brlt	.-18     	; 0x1154 <oled_print_char_of_size+0x4a>
    1166:	08 95       	ret
    1168:	30 e0       	ldi	r19, 0x00	; 0
    116a:	80 e0       	ldi	r24, 0x00	; 0
    116c:	90 e0       	ldi	r25, 0x00	; 0
    116e:	a0 e0       	ldi	r26, 0x00	; 0
    1170:	b2 e1       	ldi	r27, 0x12	; 18
    1172:	f0 cf       	rjmp	.-32     	; 0x1154 <oled_print_char_of_size+0x4a>

00001174 <oled_print_char_of_size_inverted>:
    1174:	62 30       	cpi	r22, 0x02	; 2
    1176:	41 f4       	brne	.+16     	; 0x1188 <oled_print_char_of_size_inverted+0x14>
    1178:	94 e0       	ldi	r25, 0x04	; 4
    117a:	89 02       	muls	r24, r25
    117c:	a0 01       	movw	r20, r0
    117e:	11 24       	eor	r1, r1
    1180:	40 51       	subi	r20, 0x10	; 16
    1182:	50 40       	sbci	r21, 0x00	; 0
    1184:	24 e0       	ldi	r18, 0x04	; 4
    1186:	26 c0       	rjmp	.+76     	; 0x11d4 <oled_print_char_of_size_inverted+0x60>
    1188:	61 30       	cpi	r22, 0x01	; 1
    118a:	89 f4       	brne	.+34     	; 0x11ae <oled_print_char_of_size_inverted+0x3a>
    118c:	48 2f       	mov	r20, r24
    118e:	55 27       	eor	r21, r21
    1190:	47 fd       	sbrc	r20, 7
    1192:	50 95       	com	r21
    1194:	40 52       	subi	r20, 0x20	; 32
    1196:	51 09       	sbc	r21, r1
    1198:	ca 01       	movw	r24, r20
    119a:	88 0f       	add	r24, r24
    119c:	99 1f       	adc	r25, r25
    119e:	88 0f       	add	r24, r24
    11a0:	99 1f       	adc	r25, r25
    11a2:	48 0f       	add	r20, r24
    11a4:	59 1f       	adc	r21, r25
    11a6:	44 51       	subi	r20, 0x14	; 20
    11a8:	5e 4f       	sbci	r21, 0xFE	; 254
    11aa:	25 e0       	ldi	r18, 0x05	; 5
    11ac:	13 c0       	rjmp	.+38     	; 0x11d4 <oled_print_char_of_size_inverted+0x60>
    11ae:	98 e0       	ldi	r25, 0x08	; 8
    11b0:	89 02       	muls	r24, r25
    11b2:	a0 01       	movw	r20, r0
    11b4:	11 24       	eor	r1, r1
    11b6:	49 53       	subi	r20, 0x39	; 57
    11b8:	5d 4f       	sbci	r21, 0xFD	; 253
    11ba:	28 e0       	ldi	r18, 0x08	; 8
    11bc:	0b c0       	rjmp	.+22     	; 0x11d4 <oled_print_char_of_size_inverted+0x60>
    11be:	fa 01       	movw	r30, r20
    11c0:	e8 0f       	add	r30, r24
    11c2:	f9 1f       	adc	r31, r25
    11c4:	e4 91       	lpm	r30, Z
    11c6:	e0 95       	com	r30
    11c8:	ec 93       	st	X, r30
    11ca:	01 96       	adiw	r24, 0x01	; 1
    11cc:	82 17       	cp	r24, r18
    11ce:	93 07       	cpc	r25, r19
    11d0:	b4 f3       	brlt	.-20     	; 0x11be <oled_print_char_of_size_inverted+0x4a>
    11d2:	08 95       	ret
    11d4:	30 e0       	ldi	r19, 0x00	; 0
    11d6:	80 e0       	ldi	r24, 0x00	; 0
    11d8:	90 e0       	ldi	r25, 0x00	; 0
    11da:	a0 e0       	ldi	r26, 0x00	; 0
    11dc:	b2 e1       	ldi	r27, 0x12	; 18
    11de:	ef cf       	rjmp	.-34     	; 0x11be <oled_print_char_of_size_inverted+0x4a>

000011e0 <oled_print_char>:
    11e0:	8a 30       	cpi	r24, 0x0A	; 10
    11e2:	51 f4       	brne	.+20     	; 0x11f8 <oled_print_char+0x18>
    11e4:	80 91 e5 02 	lds	r24, 0x02E5
    11e8:	8f 5f       	subi	r24, 0xFF	; 255
    11ea:	80 93 e5 02 	sts	0x02E5, r24
    11ee:	65 df       	rcall	.-310    	; 0x10ba <oled_page_select>
    11f0:	60 e8       	ldi	r22, 0x80	; 128
    11f2:	80 e0       	ldi	r24, 0x00	; 0
    11f4:	4e df       	rcall	.-356    	; 0x1092 <oled_columb_range_select>
    11f6:	03 c0       	rjmp	.+6      	; 0x11fe <oled_print_char+0x1e>
    11f8:	60 91 e4 02 	lds	r22, 0x02E4
    11fc:	86 df       	rcall	.-244    	; 0x110a <oled_print_char_of_size>
    11fe:	80 e0       	ldi	r24, 0x00	; 0
    1200:	08 95       	ret

00001202 <oled_print_char_inverted>:
    1202:	8a 30       	cpi	r24, 0x0A	; 10
    1204:	51 f4       	brne	.+20     	; 0x121a <oled_print_char_inverted+0x18>
    1206:	80 91 e5 02 	lds	r24, 0x02E5
    120a:	8f 5f       	subi	r24, 0xFF	; 255
    120c:	80 93 e5 02 	sts	0x02E5, r24
    1210:	54 df       	rcall	.-344    	; 0x10ba <oled_page_select>
    1212:	60 e8       	ldi	r22, 0x80	; 128
    1214:	80 e0       	ldi	r24, 0x00	; 0
    1216:	3d df       	rcall	.-390    	; 0x1092 <oled_columb_range_select>
    1218:	03 c0       	rjmp	.+6      	; 0x1220 <oled_print_char_inverted+0x1e>
    121a:	60 91 e4 02 	lds	r22, 0x02E4
    121e:	aa df       	rcall	.-172    	; 0x1174 <oled_print_char_of_size_inverted>
    1220:	80 e0       	ldi	r24, 0x00	; 0
    1222:	08 95       	ret

00001224 <oled_printf>:
    1224:	ef 92       	push	r14
    1226:	ff 92       	push	r15
    1228:	0f 93       	push	r16
    122a:	1f 93       	push	r17
    122c:	cf 93       	push	r28
    122e:	df 93       	push	r29
    1230:	fc 01       	movw	r30, r24
    1232:	01 90       	ld	r0, Z+
    1234:	00 20       	and	r0, r0
    1236:	e9 f7       	brne	.-6      	; 0x1232 <oled_printf+0xe>
    1238:	31 97       	sbiw	r30, 0x01	; 1
    123a:	7f 01       	movw	r14, r30
    123c:	e8 1a       	sub	r14, r24
    123e:	f9 0a       	sbc	r15, r25
    1240:	1e 14       	cp	r1, r14
    1242:	1f 04       	cpc	r1, r15
    1244:	5c f4       	brge	.+22     	; 0x125c <oled_printf+0x38>
    1246:	8c 01       	movw	r16, r24
    1248:	c0 e0       	ldi	r28, 0x00	; 0
    124a:	d0 e0       	ldi	r29, 0x00	; 0
    124c:	f8 01       	movw	r30, r16
    124e:	81 91       	ld	r24, Z+
    1250:	8f 01       	movw	r16, r30
    1252:	c6 df       	rcall	.-116    	; 0x11e0 <oled_print_char>
    1254:	21 96       	adiw	r28, 0x01	; 1
    1256:	ec 16       	cp	r14, r28
    1258:	fd 06       	cpc	r15, r29
    125a:	c1 f7       	brne	.-16     	; 0x124c <oled_printf+0x28>
    125c:	df 91       	pop	r29
    125e:	cf 91       	pop	r28
    1260:	1f 91       	pop	r17
    1262:	0f 91       	pop	r16
    1264:	ff 90       	pop	r15
    1266:	ef 90       	pop	r14
    1268:	08 95       	ret

0000126a <oled_printf_inverted>:
    126a:	ef 92       	push	r14
    126c:	ff 92       	push	r15
    126e:	0f 93       	push	r16
    1270:	1f 93       	push	r17
    1272:	cf 93       	push	r28
    1274:	df 93       	push	r29
    1276:	fc 01       	movw	r30, r24
    1278:	01 90       	ld	r0, Z+
    127a:	00 20       	and	r0, r0
    127c:	e9 f7       	brne	.-6      	; 0x1278 <oled_printf_inverted+0xe>
    127e:	31 97       	sbiw	r30, 0x01	; 1
    1280:	7f 01       	movw	r14, r30
    1282:	e8 1a       	sub	r14, r24
    1284:	f9 0a       	sbc	r15, r25
    1286:	1e 14       	cp	r1, r14
    1288:	1f 04       	cpc	r1, r15
    128a:	5c f4       	brge	.+22     	; 0x12a2 <oled_printf_inverted+0x38>
    128c:	8c 01       	movw	r16, r24
    128e:	c0 e0       	ldi	r28, 0x00	; 0
    1290:	d0 e0       	ldi	r29, 0x00	; 0
    1292:	f8 01       	movw	r30, r16
    1294:	81 91       	ld	r24, Z+
    1296:	8f 01       	movw	r16, r30
    1298:	b4 df       	rcall	.-152    	; 0x1202 <oled_print_char_inverted>
    129a:	21 96       	adiw	r28, 0x01	; 1
    129c:	ec 16       	cp	r14, r28
    129e:	fd 06       	cpc	r15, r29
    12a0:	c1 f7       	brne	.-16     	; 0x1292 <oled_printf_inverted+0x28>
    12a2:	df 91       	pop	r29
    12a4:	cf 91       	pop	r28
    12a6:	1f 91       	pop	r17
    12a8:	0f 91       	pop	r16
    12aa:	ff 90       	pop	r15
    12ac:	ef 90       	pop	r14
    12ae:	08 95       	ret

000012b0 <oled_get_joy_pos>:
    12b0:	82 e0       	ldi	r24, 0x02	; 2
    12b2:	98 e1       	ldi	r25, 0x18	; 24
    12b4:	f7 d3       	rcall	.+2030   	; 0x1aa4 <xmem_read>
    12b6:	90 e0       	ldi	r25, 0x00	; 0
    12b8:	08 95       	ret

000012ba <oled_display_activity>:
    12ba:	cf 93       	push	r28
    12bc:	df 93       	push	r29
    12be:	1c df       	rcall	.-456    	; 0x10f8 <oled_clear_screen>
    12c0:	f7 df       	rcall	.-18     	; 0x12b0 <oled_get_joy_pos>
    12c2:	ec 01       	movw	r28, r24
    12c4:	81 e0       	ldi	r24, 0x01	; 1
    12c6:	f9 de       	rcall	.-526    	; 0x10ba <oled_page_select>
    12c8:	20 97       	sbiw	r28, 0x00	; 0
    12ca:	59 f4       	brne	.+22     	; 0x12e2 <oled_display_activity+0x28>
    12cc:	8a e7       	ldi	r24, 0x7A	; 122
    12ce:	91 e0       	ldi	r25, 0x01	; 1
    12d0:	cc df       	rcall	.-104    	; 0x126a <oled_printf_inverted>
    12d2:	82 e0       	ldi	r24, 0x02	; 2
    12d4:	f2 de       	rcall	.-540    	; 0x10ba <oled_page_select>
    12d6:	86 e8       	ldi	r24, 0x86	; 134
    12d8:	91 e0       	ldi	r25, 0x01	; 1
    12da:	a4 df       	rcall	.-184    	; 0x1224 <oled_printf>
    12dc:	83 e0       	ldi	r24, 0x03	; 3
    12de:	ed de       	rcall	.-550    	; 0x10ba <oled_page_select>
    12e0:	21 c0       	rjmp	.+66     	; 0x1324 <oled_display_activity+0x6a>
    12e2:	8a e7       	ldi	r24, 0x7A	; 122
    12e4:	91 e0       	ldi	r25, 0x01	; 1
    12e6:	9e df       	rcall	.-196    	; 0x1224 <oled_printf>
    12e8:	82 e0       	ldi	r24, 0x02	; 2
    12ea:	e7 de       	rcall	.-562    	; 0x10ba <oled_page_select>
    12ec:	c1 30       	cpi	r28, 0x01	; 1
    12ee:	d1 05       	cpc	r29, r1
    12f0:	59 f4       	brne	.+22     	; 0x1308 <oled_display_activity+0x4e>
    12f2:	86 e8       	ldi	r24, 0x86	; 134
    12f4:	91 e0       	ldi	r25, 0x01	; 1
    12f6:	b9 df       	rcall	.-142    	; 0x126a <oled_printf_inverted>
    12f8:	83 e0       	ldi	r24, 0x03	; 3
    12fa:	df de       	rcall	.-578    	; 0x10ba <oled_page_select>
    12fc:	81 e9       	ldi	r24, 0x91	; 145
    12fe:	91 e0       	ldi	r25, 0x01	; 1
    1300:	91 df       	rcall	.-222    	; 0x1224 <oled_printf>
    1302:	84 e0       	ldi	r24, 0x04	; 4
    1304:	da de       	rcall	.-588    	; 0x10ba <oled_page_select>
    1306:	19 c0       	rjmp	.+50     	; 0x133a <oled_display_activity+0x80>
    1308:	86 e8       	ldi	r24, 0x86	; 134
    130a:	91 e0       	ldi	r25, 0x01	; 1
    130c:	8b df       	rcall	.-234    	; 0x1224 <oled_printf>
    130e:	83 e0       	ldi	r24, 0x03	; 3
    1310:	d4 de       	rcall	.-600    	; 0x10ba <oled_page_select>
    1312:	c2 30       	cpi	r28, 0x02	; 2
    1314:	d1 05       	cpc	r29, r1
    1316:	31 f4       	brne	.+12     	; 0x1324 <oled_display_activity+0x6a>
    1318:	81 e9       	ldi	r24, 0x91	; 145
    131a:	91 e0       	ldi	r25, 0x01	; 1
    131c:	a6 df       	rcall	.-180    	; 0x126a <oled_printf_inverted>
    131e:	84 e0       	ldi	r24, 0x04	; 4
    1320:	cc de       	rcall	.-616    	; 0x10ba <oled_page_select>
    1322:	0b c0       	rjmp	.+22     	; 0x133a <oled_display_activity+0x80>
    1324:	81 e9       	ldi	r24, 0x91	; 145
    1326:	91 e0       	ldi	r25, 0x01	; 1
    1328:	7d df       	rcall	.-262    	; 0x1224 <oled_printf>
    132a:	84 e0       	ldi	r24, 0x04	; 4
    132c:	c6 de       	rcall	.-628    	; 0x10ba <oled_page_select>
    132e:	23 97       	sbiw	r28, 0x03	; 3
    1330:	21 f4       	brne	.+8      	; 0x133a <oled_display_activity+0x80>
    1332:	8e e9       	ldi	r24, 0x9E	; 158
    1334:	91 e0       	ldi	r25, 0x01	; 1
    1336:	99 df       	rcall	.-206    	; 0x126a <oled_printf_inverted>
    1338:	03 c0       	rjmp	.+6      	; 0x1340 <oled_display_activity+0x86>
    133a:	8c ea       	ldi	r24, 0xAC	; 172
    133c:	91 e0       	ldi	r25, 0x01	; 1
    133e:	72 df       	rcall	.-284    	; 0x1224 <oled_printf>
    1340:	df 91       	pop	r29
    1342:	cf 91       	pop	r28
    1344:	08 95       	ret

00001346 <oled_init>:
    1346:	e0 e0       	ldi	r30, 0x00	; 0
    1348:	f0 e1       	ldi	r31, 0x10	; 16
    134a:	8e ea       	ldi	r24, 0xAE	; 174
    134c:	80 83       	st	Z, r24
    134e:	81 ea       	ldi	r24, 0xA1	; 161
    1350:	80 83       	st	Z, r24
    1352:	8a ed       	ldi	r24, 0xDA	; 218
    1354:	80 83       	st	Z, r24
    1356:	82 e1       	ldi	r24, 0x12	; 18
    1358:	80 83       	st	Z, r24
    135a:	88 ec       	ldi	r24, 0xC8	; 200
    135c:	80 83       	st	Z, r24
    135e:	88 ea       	ldi	r24, 0xA8	; 168
    1360:	80 83       	st	Z, r24
    1362:	8f e3       	ldi	r24, 0x3F	; 63
    1364:	80 83       	st	Z, r24
    1366:	85 ed       	ldi	r24, 0xD5	; 213
    1368:	80 83       	st	Z, r24
    136a:	80 e8       	ldi	r24, 0x80	; 128
    136c:	80 83       	st	Z, r24
    136e:	81 e8       	ldi	r24, 0x81	; 129
    1370:	80 83       	st	Z, r24
    1372:	80 e5       	ldi	r24, 0x50	; 80
    1374:	80 83       	st	Z, r24
    1376:	89 ed       	ldi	r24, 0xD9	; 217
    1378:	80 83       	st	Z, r24
    137a:	81 e2       	ldi	r24, 0x21	; 33
    137c:	80 83       	st	Z, r24
    137e:	80 e2       	ldi	r24, 0x20	; 32
    1380:	80 83       	st	Z, r24
    1382:	82 e0       	ldi	r24, 0x02	; 2
    1384:	80 83       	st	Z, r24
    1386:	8b ed       	ldi	r24, 0xDB	; 219
    1388:	80 83       	st	Z, r24
    138a:	80 e3       	ldi	r24, 0x30	; 48
    138c:	80 83       	st	Z, r24
    138e:	8d ea       	ldi	r24, 0xAD	; 173
    1390:	80 83       	st	Z, r24
    1392:	10 82       	st	Z, r1
    1394:	84 ea       	ldi	r24, 0xA4	; 164
    1396:	80 83       	st	Z, r24
    1398:	86 ea       	ldi	r24, 0xA6	; 166
    139a:	80 83       	st	Z, r24
    139c:	8f ea       	ldi	r24, 0xAF	; 175
    139e:	80 83       	st	Z, r24
    13a0:	ab de       	rcall	.-682    	; 0x10f8 <oled_clear_screen>
    13a2:	10 92 e9 02 	sts	0x02E9, r1
    13a6:	10 92 e8 02 	sts	0x02E8, r1
    13aa:	84 e0       	ldi	r24, 0x04	; 4
    13ac:	98 e1       	ldi	r25, 0x18	; 24
    13ae:	7a d3       	rcall	.+1780   	; 0x1aa4 <xmem_read>
    13b0:	90 e0       	ldi	r25, 0x00	; 0
    13b2:	90 93 e7 02 	sts	0x02E7, r25
    13b6:	80 93 e6 02 	sts	0x02E6, r24
    13ba:	7f cf       	rjmp	.-258    	; 0x12ba <oled_display_activity>
    13bc:	08 95       	ret

000013be <oled_set_joy_pos>:
    13be:	62 e0       	ldi	r22, 0x02	; 2
    13c0:	78 e1       	ldi	r23, 0x18	; 24
    13c2:	6c c3       	rjmp	.+1752   	; 0x1a9c <xmem_write>
    13c4:	08 95       	ret

000013c6 <oled_actualise_joy_pos>:
    13c6:	ef 92       	push	r14
    13c8:	ff 92       	push	r15
    13ca:	0f 93       	push	r16
    13cc:	1f 93       	push	r17
    13ce:	cf 93       	push	r28
    13d0:	df 93       	push	r29
    13d2:	8c 01       	movw	r16, r24
    13d4:	61 15       	cp	r22, r1
    13d6:	71 05       	cpc	r23, r1
    13d8:	41 f0       	breq	.+16     	; 0x13ea <oled_actualise_joy_pos+0x24>
    13da:	62 30       	cpi	r22, 0x02	; 2
    13dc:	71 05       	cpc	r23, r1
    13de:	59 f0       	breq	.+22     	; 0x13f6 <oled_actualise_joy_pos+0x30>
    13e0:	68 94       	set
    13e2:	ee 24       	eor	r14, r14
    13e4:	e1 f8       	bld	r14, 1
    13e6:	f1 2c       	mov	r15, r1
    13e8:	09 c0       	rjmp	.+18     	; 0x13fc <oled_actualise_joy_pos+0x36>
    13ea:	0f 2e       	mov	r0, r31
    13ec:	f3 e0       	ldi	r31, 0x03	; 3
    13ee:	ef 2e       	mov	r14, r31
    13f0:	f1 2c       	mov	r15, r1
    13f2:	f0 2d       	mov	r31, r0
    13f4:	03 c0       	rjmp	.+6      	; 0x13fc <oled_actualise_joy_pos+0x36>
    13f6:	ee 24       	eor	r14, r14
    13f8:	e3 94       	inc	r14
    13fa:	f1 2c       	mov	r15, r1
    13fc:	59 df       	rcall	.-334    	; 0x12b0 <oled_get_joy_pos>
    13fe:	ec 01       	movw	r28, r24
    1400:	02 30       	cpi	r16, 0x02	; 2
    1402:	11 05       	cpc	r17, r1
    1404:	21 f4       	brne	.+8      	; 0x140e <oled_actualise_joy_pos+0x48>
    1406:	00 97       	sbiw	r24, 0x00	; 0
    1408:	79 f0       	breq	.+30     	; 0x1428 <oled_actualise_joy_pos+0x62>
    140a:	21 97       	sbiw	r28, 0x01	; 1
    140c:	11 c0       	rjmp	.+34     	; 0x1430 <oled_actualise_joy_pos+0x6a>
    140e:	03 30       	cpi	r16, 0x03	; 3
    1410:	11 05       	cpc	r17, r1
    1412:	71 f4       	brne	.+28     	; 0x1430 <oled_actualise_joy_pos+0x6a>
    1414:	8e 15       	cp	r24, r14
    1416:	9f 05       	cpc	r25, r15
    1418:	49 f0       	breq	.+18     	; 0x142c <oled_actualise_joy_pos+0x66>
    141a:	01 96       	adiw	r24, 0x01	; 1
    141c:	b7 01       	movw	r22, r14
    141e:	6f 5f       	subi	r22, 0xFF	; 255
    1420:	7f 4f       	sbci	r23, 0xFF	; 255
    1422:	cb d3       	rcall	.+1942   	; 0x1bba <__divmodhi4>
    1424:	ec 01       	movw	r28, r24
    1426:	04 c0       	rjmp	.+8      	; 0x1430 <oled_actualise_joy_pos+0x6a>
    1428:	e7 01       	movw	r28, r14
    142a:	02 c0       	rjmp	.+4      	; 0x1430 <oled_actualise_joy_pos+0x6a>
    142c:	c0 e0       	ldi	r28, 0x00	; 0
    142e:	d0 e0       	ldi	r29, 0x00	; 0
    1430:	ce 01       	movw	r24, r28
    1432:	c5 df       	rcall	.-118    	; 0x13be <oled_set_joy_pos>
    1434:	df 93       	push	r29
    1436:	cf 93       	push	r28
    1438:	8a eb       	ldi	r24, 0xBA	; 186
    143a:	91 e0       	ldi	r25, 0x01	; 1
    143c:	9f 93       	push	r25
    143e:	8f 93       	push	r24
    1440:	2d d4       	rcall	.+2138   	; 0x1c9c <printf>
    1442:	0f 90       	pop	r0
    1444:	0f 90       	pop	r0
    1446:	0f 90       	pop	r0
    1448:	0f 90       	pop	r0
    144a:	df 91       	pop	r29
    144c:	cf 91       	pop	r28
    144e:	1f 91       	pop	r17
    1450:	0f 91       	pop	r16
    1452:	ff 90       	pop	r15
    1454:	ef 90       	pop	r14
    1456:	08 95       	ret

00001458 <oled_print_high_score>:
}

void oled_print_high_score(){
    1458:	0f 93       	push	r16
    145a:	1f 93       	push	r17
    145c:	cf 93       	push	r28
    145e:	df 93       	push	r29
    1460:	00 d0       	rcall	.+0      	; 0x1462 <oled_print_high_score+0xa>
    1462:	00 d0       	rcall	.+0      	; 0x1464 <oled_print_high_score+0xc>
    1464:	cd b7       	in	r28, 0x3d	; 61
    1466:	de b7       	in	r29, 0x3e	; 62
	oled_clear_screen();
    1468:	47 de       	rcall	.-882    	; 0x10f8 <oled_clear_screen>
	oled_page_select(1);
    146a:	81 e0       	ldi	r24, 0x01	; 1
    146c:	26 de       	rcall	.-948    	; 0x10ba <oled_page_select>
	oled_printf("High score :\n");
    146e:	84 ec       	ldi	r24, 0xC4	; 196
    1470:	91 e0       	ldi	r25, 0x01	; 1
    1472:	d8 de       	rcall	.-592    	; 0x1224 <oled_printf>
	
	oled_page_select(2);
    1474:	82 e0       	ldi	r24, 0x02	; 2
    1476:	21 de       	rcall	.-958    	; 0x10ba <oled_page_select>
	char high_score_char [4];
	sprintf(high_score_char, "%d", high_score);
    1478:	80 91 e7 02 	lds	r24, 0x02E7
    147c:	8f 93       	push	r24
    147e:	80 91 e6 02 	lds	r24, 0x02E6
    1482:	8f 93       	push	r24
    1484:	82 ed       	ldi	r24, 0xD2	; 210
    1486:	91 e0       	ldi	r25, 0x01	; 1
    1488:	9f 93       	push	r25
    148a:	8f 93       	push	r24
    148c:	8e 01       	movw	r16, r28
    148e:	0f 5f       	subi	r16, 0xFF	; 255
    1490:	1f 4f       	sbci	r17, 0xFF	; 255
    1492:	1f 93       	push	r17
    1494:	0f 93       	push	r16
    1496:	13 d4       	rcall	.+2086   	; 0x1cbe <sprintf>
	oled_printf(high_score_char);
    1498:	c8 01       	movw	r24, r16
    149a:	c4 de       	rcall	.-632    	; 0x1224 <oled_printf>
	
	oled_page_select(3);
    149c:	83 e0       	ldi	r24, 0x03	; 3
    149e:	0d de       	rcall	.-998    	; 0x10ba <oled_page_select>
	oled_printf_inverted("Reset");
    14a0:	85 ed       	ldi	r24, 0xD5	; 213
    14a2:	91 e0       	ldi	r25, 0x01	; 1
    14a4:	e2 de       	rcall	.-572    	; 0x126a <oled_printf_inverted>
    14a6:	0f 90       	pop	r0
    14a8:	0f 90       	pop	r0
    14aa:	0f 90       	pop	r0
    14ac:	0f 90       	pop	r0
    14ae:	0f 90       	pop	r0
    14b0:	0f 90       	pop	r0
}
    14b2:	0f 90       	pop	r0
    14b4:	0f 90       	pop	r0
    14b6:	0f 90       	pop	r0
    14b8:	0f 90       	pop	r0
    14ba:	df 91       	pop	r29
    14bc:	cf 91       	pop	r28
    14be:	1f 91       	pop	r17
    14c0:	0f 91       	pop	r16
    14c2:	08 95       	ret

000014c4 <oled_navigate_gain_menu>:

void oled_navigate_gain_menu(){
    14c4:	cf 93       	push	r28
    14c6:	df 93       	push	r29
	oled_clear_screen();
    14c8:	17 de       	rcall	.-978    	; 0x10f8 <oled_clear_screen>
	int joy_pos = oled_get_joy_pos();
    14ca:	f2 de       	rcall	.-540    	; 0x12b0 <oled_get_joy_pos>
    14cc:	ec 01       	movw	r28, r24
	
	oled_page_select(1);
    14ce:	81 e0       	ldi	r24, 0x01	; 1
    14d0:	f4 dd       	rcall	.-1048   	; 0x10ba <oled_page_select>
	if(joy_pos == 0){
    14d2:	20 97       	sbiw	r28, 0x00	; 0
    14d4:	59 f4       	brne	.+22     	; 0x14ec <oled_navigate_gain_menu+0x28>
		oled_printf_inverted("Easy \n");
    14d6:	8b ed       	ldi	r24, 0xDB	; 219
    14d8:	91 e0       	ldi	r25, 0x01	; 1
    14da:	c7 de       	rcall	.-626    	; 0x126a <oled_printf_inverted>
	}else{
		oled_printf("Easy \n");
	}
	oled_page_select(2);
    14dc:	82 e0       	ldi	r24, 0x02	; 2
    14de:	ed dd       	rcall	.-1062   	; 0x10ba <oled_page_select>
	if(joy_pos == 1){
		oled_printf_inverted("Medium \n");
	}else{
		oled_printf("Medium \n");
    14e0:	82 ee       	ldi	r24, 0xE2	; 226
    14e2:	91 e0       	ldi	r25, 0x01	; 1
    14e4:	9f de       	rcall	.-706    	; 0x1224 <oled_printf>
	}
	oled_page_select(3);
    14e6:	83 e0       	ldi	r24, 0x03	; 3
    14e8:	e8 dd       	rcall	.-1072   	; 0x10ba <oled_page_select>
    14ea:	19 c0       	rjmp	.+50     	; 0x151e <oled_navigate_gain_menu+0x5a>
	
	oled_page_select(1);
	if(joy_pos == 0){
		oled_printf_inverted("Easy \n");
	}else{
		oled_printf("Easy \n");
    14ec:	8b ed       	ldi	r24, 0xDB	; 219
    14ee:	91 e0       	ldi	r25, 0x01	; 1
    14f0:	99 de       	rcall	.-718    	; 0x1224 <oled_printf>
	}
	oled_page_select(2);
    14f2:	82 e0       	ldi	r24, 0x02	; 2
    14f4:	e2 dd       	rcall	.-1084   	; 0x10ba <oled_page_select>
	if(joy_pos == 1){
    14f6:	c1 30       	cpi	r28, 0x01	; 1
    14f8:	d1 05       	cpc	r29, r1
    14fa:	31 f4       	brne	.+12     	; 0x1508 <oled_navigate_gain_menu+0x44>
		oled_printf_inverted("Medium \n");
    14fc:	82 ee       	ldi	r24, 0xE2	; 226
    14fe:	91 e0       	ldi	r25, 0x01	; 1
    1500:	b4 de       	rcall	.-664    	; 0x126a <oled_printf_inverted>
	}else{
		oled_printf("Medium \n");
	}
	oled_page_select(3);
    1502:	83 e0       	ldi	r24, 0x03	; 3
    1504:	da dd       	rcall	.-1100   	; 0x10ba <oled_page_select>
    1506:	0b c0       	rjmp	.+22     	; 0x151e <oled_navigate_gain_menu+0x5a>
	}
	oled_page_select(2);
	if(joy_pos == 1){
		oled_printf_inverted("Medium \n");
	}else{
		oled_printf("Medium \n");
    1508:	82 ee       	ldi	r24, 0xE2	; 226
    150a:	91 e0       	ldi	r25, 0x01	; 1
    150c:	8b de       	rcall	.-746    	; 0x1224 <oled_printf>
	}
	oled_page_select(3);
    150e:	83 e0       	ldi	r24, 0x03	; 3
    1510:	d4 dd       	rcall	.-1112   	; 0x10ba <oled_page_select>
	if(joy_pos == 2){
    1512:	22 97       	sbiw	r28, 0x02	; 2
    1514:	21 f4       	brne	.+8      	; 0x151e <oled_navigate_gain_menu+0x5a>
		oled_printf_inverted("Hard \n");
    1516:	8b ee       	ldi	r24, 0xEB	; 235
    1518:	91 e0       	ldi	r25, 0x01	; 1
    151a:	a7 de       	rcall	.-690    	; 0x126a <oled_printf_inverted>
    151c:	03 c0       	rjmp	.+6      	; 0x1524 <oled_navigate_gain_menu+0x60>
	}else{
	oled_printf("Hard \n");
    151e:	8b ee       	ldi	r24, 0xEB	; 235
    1520:	91 e0       	ldi	r25, 0x01	; 1
    1522:	80 de       	rcall	.-768    	; 0x1224 <oled_printf>
	}
}
    1524:	df 91       	pop	r29
    1526:	cf 91       	pop	r28
    1528:	08 95       	ret

0000152a <oled_in_game_mode>:

void oled_in_game_mode(int difficulty){
    152a:	cf 92       	push	r12
    152c:	df 92       	push	r13
    152e:	ef 92       	push	r14
    1530:	ff 92       	push	r15
    1532:	0f 93       	push	r16
    1534:	1f 93       	push	r17
    1536:	cf 93       	push	r28
    1538:	df 93       	push	r29
    153a:	cd b7       	in	r28, 0x3d	; 61
    153c:	de b7       	in	r29, 0x3e	; 62
    153e:	29 97       	sbiw	r28, 0x09	; 9
    1540:	0f b6       	in	r0, 0x3f	; 63
    1542:	f8 94       	cli
    1544:	de bf       	out	0x3e, r29	; 62
    1546:	0f be       	out	0x3f, r0	; 63
    1548:	cd bf       	out	0x3d, r28	; 61
    154a:	6c 01       	movw	r12, r24
	oled_clear_screen();
    154c:	d5 dd       	rcall	.-1110   	; 0x10f8 <oled_clear_screen>
	oled_page_select(1);
    154e:	81 e0       	ldi	r24, 0x01	; 1
    1550:	b4 dd       	rcall	.-1176   	; 0x10ba <oled_page_select>
	oled_printf("GAME ACTIVE \n");
    1552:	82 ef       	ldi	r24, 0xF2	; 242
    1554:	91 e0       	ldi	r25, 0x01	; 1
    1556:	66 de       	rcall	.-820    	; 0x1224 <oled_printf>
	oled_page_select(2);
    1558:	82 e0       	ldi	r24, 0x02	; 2
    155a:	af dd       	rcall	.-1186   	; 0x10ba <oled_page_select>
	oled_printf("lives left: ");
    155c:	80 e0       	ldi	r24, 0x00	; 0
    155e:	92 e0       	ldi	r25, 0x02	; 2
    1560:	61 de       	rcall	.-830    	; 0x1224 <oled_printf>
	char lives_left [1];
	sprintf(lives_left, "%d", lives);
    1562:	80 91 11 01 	lds	r24, 0x0111
    1566:	8f 93       	push	r24
    1568:	80 91 10 01 	lds	r24, 0x0110
    156c:	8f 93       	push	r24
    156e:	02 ed       	ldi	r16, 0xD2	; 210
    1570:	11 e0       	ldi	r17, 0x01	; 1
    1572:	1f 93       	push	r17
    1574:	0f 93       	push	r16
    1576:	ce 01       	movw	r24, r28
    1578:	01 96       	adiw	r24, 0x01	; 1
    157a:	7c 01       	movw	r14, r24
    157c:	ff 92       	push	r15
    157e:	8f 93       	push	r24
    1580:	9e d3       	rcall	.+1852   	; 0x1cbe <sprintf>
	oled_printf(lives_left);
    1582:	c7 01       	movw	r24, r14
    1584:	4f de       	rcall	.-866    	; 0x1224 <oled_printf>
	oled_printf("\n");
    1586:	8e e3       	ldi	r24, 0x3E	; 62
    1588:	92 e0       	ldi	r25, 0x02	; 2
    158a:	4c de       	rcall	.-872    	; 0x1224 <oled_printf>
	oled_page_select(3);
    158c:	83 e0       	ldi	r24, 0x03	; 3
    158e:	95 dd       	rcall	.-1238   	; 0x10ba <oled_page_select>
	oled_printf("score: ");
    1590:	82 e1       	ldi	r24, 0x12	; 18
    1592:	92 e0       	ldi	r25, 0x02	; 2
    1594:	47 de       	rcall	.-882    	; 0x1224 <oled_printf>
	char scr [4];
	sprintf(scr, "%d", com_get_score());
    1596:	70 dc       	rcall	.-1824   	; 0xe78 <com_get_score>
    1598:	9f 93       	push	r25
    159a:	8f 93       	push	r24
    159c:	1f 93       	push	r17
    159e:	0f 93       	push	r16
    15a0:	7e 01       	movw	r14, r28
    15a2:	92 e0       	ldi	r25, 0x02	; 2
    15a4:	e9 0e       	add	r14, r25
    15a6:	f1 1c       	adc	r15, r1
    15a8:	ff 92       	push	r15
    15aa:	ef 92       	push	r14
    15ac:	88 d3       	rcall	.+1808   	; 0x1cbe <sprintf>
	oled_printf(scr);
    15ae:	c7 01       	movw	r24, r14
    15b0:	39 de       	rcall	.-910    	; 0x1224 <oled_printf>
	oled_printf("\n");
    15b2:	8e e3       	ldi	r24, 0x3E	; 62
    15b4:	92 e0       	ldi	r25, 0x02	; 2
    15b6:	36 de       	rcall	.-916    	; 0x1224 <oled_printf>
	oled_page_select(4);
    15b8:	84 e0       	ldi	r24, 0x04	; 4
    15ba:	7f dd       	rcall	.-1282   	; 0x10ba <oled_page_select>
	oled_printf("high score: ");
    15bc:	8d e0       	ldi	r24, 0x0D	; 13
    15be:	92 e0       	ldi	r25, 0x02	; 2
    15c0:	31 de       	rcall	.-926    	; 0x1224 <oled_printf>
	char hs [4];
	sprintf(hs, "%d", high_score);
    15c2:	80 91 e7 02 	lds	r24, 0x02E7
    15c6:	8f 93       	push	r24
    15c8:	80 91 e6 02 	lds	r24, 0x02E6
    15cc:	8f 93       	push	r24
    15ce:	1f 93       	push	r17
    15d0:	0f 93       	push	r16
    15d2:	8e 01       	movw	r16, r28
    15d4:	0a 5f       	subi	r16, 0xFA	; 250
    15d6:	1f 4f       	sbci	r17, 0xFF	; 255
    15d8:	1f 93       	push	r17
    15da:	0f 93       	push	r16
    15dc:	70 d3       	rcall	.+1760   	; 0x1cbe <sprintf>
	oled_printf(hs);
    15de:	c8 01       	movw	r24, r16
    15e0:	21 de       	rcall	.-958    	; 0x1224 <oled_printf>
	oled_printf("\n");
    15e2:	8e e3       	ldi	r24, 0x3E	; 62
    15e4:	92 e0       	ldi	r25, 0x02	; 2
    15e6:	1e de       	rcall	.-964    	; 0x1224 <oled_printf>
	oled_page_select(5);
    15e8:	85 e0       	ldi	r24, 0x05	; 5
    15ea:	67 dd       	rcall	.-1330   	; 0x10ba <oled_page_select>
	if (difficulty == 0){
    15ec:	0f b6       	in	r0, 0x3f	; 63
    15ee:	f8 94       	cli
    15f0:	de bf       	out	0x3e, r29	; 62
    15f2:	0f be       	out	0x3f, r0	; 63
    15f4:	cd bf       	out	0x3d, r28	; 61
    15f6:	c1 14       	cp	r12, r1
    15f8:	d1 04       	cpc	r13, r1
    15fa:	21 f4       	brne	.+8      	; 0x1604 <oled_in_game_mode+0xda>
		oled_printf("easy \n");
    15fc:	8a e1       	ldi	r24, 0x1A	; 26
    15fe:	92 e0       	ldi	r25, 0x02	; 2
    1600:	11 de       	rcall	.-990    	; 0x1224 <oled_printf>
    1602:	0a c0       	rjmp	.+20     	; 0x1618 <oled_in_game_mode+0xee>
	}else if (difficulty == 1){
    1604:	ca 94       	dec	r12
    1606:	cd 28       	or	r12, r13
    1608:	21 f4       	brne	.+8      	; 0x1612 <oled_in_game_mode+0xe8>
		oled_printf("medium \n");
    160a:	81 e2       	ldi	r24, 0x21	; 33
    160c:	92 e0       	ldi	r25, 0x02	; 2
    160e:	0a de       	rcall	.-1004   	; 0x1224 <oled_printf>
    1610:	03 c0       	rjmp	.+6      	; 0x1618 <oled_in_game_mode+0xee>
	}else{
		oled_printf("hard \n");
    1612:	8a e2       	ldi	r24, 0x2A	; 42
    1614:	92 e0       	ldi	r25, 0x02	; 2
    1616:	06 de       	rcall	.-1012   	; 0x1224 <oled_printf>
	}
}
    1618:	29 96       	adiw	r28, 0x09	; 9
    161a:	0f b6       	in	r0, 0x3f	; 63
    161c:	f8 94       	cli
    161e:	de bf       	out	0x3e, r29	; 62
    1620:	0f be       	out	0x3f, r0	; 63
    1622:	cd bf       	out	0x3d, r28	; 61
    1624:	df 91       	pop	r29
    1626:	cf 91       	pop	r28
    1628:	1f 91       	pop	r17
    162a:	0f 91       	pop	r16
    162c:	ff 90       	pop	r15
    162e:	ef 90       	pop	r14
    1630:	df 90       	pop	r13
    1632:	cf 90       	pop	r12
    1634:	08 95       	ret

00001636 <oled_get_lives>:

int oled_get_lives(){
	return lives;
}
    1636:	80 91 10 01 	lds	r24, 0x0110
    163a:	90 91 11 01 	lds	r25, 0x0111
    163e:	08 95       	ret

00001640 <oled_reduce_lives>:

void oled_reduce_lives(){
	lives--;
    1640:	80 91 10 01 	lds	r24, 0x0110
    1644:	90 91 11 01 	lds	r25, 0x0111
    1648:	01 97       	sbiw	r24, 0x01	; 1
    164a:	90 93 11 01 	sts	0x0111, r25
    164e:	80 93 10 01 	sts	0x0110, r24
    1652:	08 95       	ret

00001654 <oled_reset_lives>:
}

void oled_reset_lives(){
	lives = 3;
    1654:	83 e0       	ldi	r24, 0x03	; 3
    1656:	90 e0       	ldi	r25, 0x00	; 0
    1658:	90 93 11 01 	sts	0x0111, r25
    165c:	80 93 10 01 	sts	0x0110, r24
    1660:	08 95       	ret

00001662 <oled_actualise_high_score>:
}

void oled_actualise_high_score(){
	int score = com_get_score();
    1662:	0a dc       	rcall	.-2028   	; 0xe78 <com_get_score>
	if(score > high_score){
    1664:	20 91 e6 02 	lds	r18, 0x02E6
    1668:	30 91 e7 02 	lds	r19, 0x02E7
    166c:	28 17       	cp	r18, r24
    166e:	39 07       	cpc	r19, r25
    1670:	24 f4       	brge	.+8      	; 0x167a <oled_actualise_high_score+0x18>
		high_score = score;
    1672:	90 93 e7 02 	sts	0x02E7, r25
    1676:	80 93 e6 02 	sts	0x02E6, r24
	}
	xmem_write(high_score, HS_POS_ADDRESS);
    167a:	64 e0       	ldi	r22, 0x04	; 4
    167c:	78 e1       	ldi	r23, 0x18	; 24
    167e:	80 91 e6 02 	lds	r24, 0x02E6
    1682:	0c c2       	rjmp	.+1048   	; 0x1a9c <xmem_write>
    1684:	08 95       	ret

00001686 <oled_reset_hs>:
}

void oled_reset_hs(){
	high_score = 0;
    1686:	10 92 e7 02 	sts	0x02E7, r1
    168a:	10 92 e6 02 	sts	0x02E6, r1
	xmem_write(high_score, HS_POS_ADDRESS);
    168e:	64 e0       	ldi	r22, 0x04	; 4
    1690:	78 e1       	ldi	r23, 0x18	; 24
    1692:	80 e0       	ldi	r24, 0x00	; 0
    1694:	03 c2       	rjmp	.+1030   	; 0x1a9c <xmem_write>
    1696:	08 95       	ret

00001698 <oled_game_over>:
}

void oled_game_over(){
	oled_clear_screen();
    1698:	2f dd       	rcall	.-1442   	; 0x10f8 <oled_clear_screen>
	oled_page_select(1);
    169a:	81 e0       	ldi	r24, 0x01	; 1
    169c:	0e dd       	rcall	.-1508   	; 0x10ba <oled_page_select>
	oled_printf("GAME OVER... \n");
    169e:	81 e3       	ldi	r24, 0x31	; 49
    16a0:	92 e0       	ldi	r25, 0x02	; 2
    16a2:	c0 cd       	rjmp	.-1152   	; 0x1224 <oled_printf>
    16a4:	08 95       	ret

000016a6 <oled_print_difficulty>:
}

void oled_print_difficulty(int difficulty){
    16a6:	cf 93       	push	r28
    16a8:	df 93       	push	r29
    16aa:	ec 01       	movw	r28, r24
	oled_clear_screen();
    16ac:	25 dd       	rcall	.-1462   	; 0x10f8 <oled_clear_screen>
	switch(difficulty){
    16ae:	c1 30       	cpi	r28, 0x01	; 1
    16b0:	d1 05       	cpc	r29, r1
    16b2:	d9 f0       	breq	.+54     	; 0x16ea <oled_print_difficulty+0x44>
    16b4:	c2 30       	cpi	r28, 0x02	; 2
    16b6:	d1 05       	cpc	r29, r1
    16b8:	69 f1       	breq	.+90     	; 0x1714 <oled_print_difficulty+0x6e>
    16ba:	cd 2b       	or	r28, r29
    16bc:	09 f0       	breq	.+2      	; 0x16c0 <oled_print_difficulty+0x1a>
    16be:	3e c0       	rjmp	.+124    	; 0x173c <oled_print_difficulty+0x96>
		case 0:
			oled_page_select(1);
    16c0:	81 e0       	ldi	r24, 0x01	; 1
    16c2:	fb dc       	rcall	.-1546   	; 0x10ba <oled_page_select>
			oled_printf("EASY selected \n");
    16c4:	80 e4       	ldi	r24, 0x40	; 64
    16c6:	92 e0       	ldi	r25, 0x02	; 2
    16c8:	ad dd       	rcall	.-1190   	; 0x1224 <oled_printf>
			oled_page_select(2);
    16ca:	82 e0       	ldi	r24, 0x02	; 2
    16cc:	f6 dc       	rcall	.-1556   	; 0x10ba <oled_page_select>
			oled_printf("Kp = 1.2\n");
    16ce:	80 e5       	ldi	r24, 0x50	; 80
    16d0:	92 e0       	ldi	r25, 0x02	; 2
    16d2:	a8 dd       	rcall	.-1200   	; 0x1224 <oled_printf>
			oled_page_select(3);
    16d4:	83 e0       	ldi	r24, 0x03	; 3
    16d6:	f1 dc       	rcall	.-1566   	; 0x10ba <oled_page_select>
			oled_printf("Ki = 0.8\n");
    16d8:	8a e5       	ldi	r24, 0x5A	; 90
    16da:	92 e0       	ldi	r25, 0x02	; 2
    16dc:	a3 dd       	rcall	.-1210   	; 0x1224 <oled_printf>
			oled_page_select(4);
    16de:	84 e0       	ldi	r24, 0x04	; 4
    16e0:	ec dc       	rcall	.-1576   	; 0x10ba <oled_page_select>
			oled_printf("Kd = 0.2");
    16e2:	84 e6       	ldi	r24, 0x64	; 100
    16e4:	92 e0       	ldi	r25, 0x02	; 2
    16e6:	9e dd       	rcall	.-1220   	; 0x1224 <oled_printf>
			break;
    16e8:	29 c0       	rjmp	.+82     	; 0x173c <oled_print_difficulty+0x96>
		case 1:
			oled_page_select(1);
    16ea:	81 e0       	ldi	r24, 0x01	; 1
    16ec:	e6 dc       	rcall	.-1588   	; 0x10ba <oled_page_select>
			oled_printf("MEDIUM selected \n");
    16ee:	8d e6       	ldi	r24, 0x6D	; 109
    16f0:	92 e0       	ldi	r25, 0x02	; 2
    16f2:	98 dd       	rcall	.-1232   	; 0x1224 <oled_printf>
			oled_page_select(2);
    16f4:	82 e0       	ldi	r24, 0x02	; 2
    16f6:	e1 dc       	rcall	.-1598   	; 0x10ba <oled_page_select>
			oled_printf("Kp = 0.05\n");
    16f8:	8f e7       	ldi	r24, 0x7F	; 127
    16fa:	92 e0       	ldi	r25, 0x02	; 2
    16fc:	93 dd       	rcall	.-1242   	; 0x1224 <oled_printf>
			oled_page_select(3);
    16fe:	83 e0       	ldi	r24, 0x03	; 3
    1700:	dc dc       	rcall	.-1608   	; 0x10ba <oled_page_select>
			oled_printf("Ki = 0.8\n");
    1702:	8a e5       	ldi	r24, 0x5A	; 90
    1704:	92 e0       	ldi	r25, 0x02	; 2
    1706:	8e dd       	rcall	.-1252   	; 0x1224 <oled_printf>
			oled_page_select(4);
    1708:	84 e0       	ldi	r24, 0x04	; 4
    170a:	d7 dc       	rcall	.-1618   	; 0x10ba <oled_page_select>
			oled_printf("Kd = 0.2");
    170c:	84 e6       	ldi	r24, 0x64	; 100
    170e:	92 e0       	ldi	r25, 0x02	; 2
    1710:	89 dd       	rcall	.-1262   	; 0x1224 <oled_printf>
			break;
    1712:	14 c0       	rjmp	.+40     	; 0x173c <oled_print_difficulty+0x96>
		case 2:
			oled_page_select(1);
    1714:	81 e0       	ldi	r24, 0x01	; 1
    1716:	d1 dc       	rcall	.-1630   	; 0x10ba <oled_page_select>
			oled_printf("HARD selected \n");
    1718:	8a e8       	ldi	r24, 0x8A	; 138
    171a:	92 e0       	ldi	r25, 0x02	; 2
    171c:	83 dd       	rcall	.-1274   	; 0x1224 <oled_printf>
			oled_page_select(2);
    171e:	82 e0       	ldi	r24, 0x02	; 2
    1720:	cc dc       	rcall	.-1640   	; 0x10ba <oled_page_select>
			oled_printf("Kp = 2.0\n");
    1722:	8a e9       	ldi	r24, 0x9A	; 154
    1724:	92 e0       	ldi	r25, 0x02	; 2
    1726:	7e dd       	rcall	.-1284   	; 0x1224 <oled_printf>
			oled_page_select(3);
    1728:	83 e0       	ldi	r24, 0x03	; 3
    172a:	c7 dc       	rcall	.-1650   	; 0x10ba <oled_page_select>
			oled_printf("Ki = 0.0\n");
    172c:	84 ea       	ldi	r24, 0xA4	; 164
    172e:	92 e0       	ldi	r25, 0x02	; 2
    1730:	79 dd       	rcall	.-1294   	; 0x1224 <oled_printf>
			oled_page_select(4);
    1732:	84 e0       	ldi	r24, 0x04	; 4
    1734:	c2 dc       	rcall	.-1660   	; 0x10ba <oled_page_select>
			oled_printf("Kd = 0.0");
    1736:	8e ea       	ldi	r24, 0xAE	; 174
    1738:	92 e0       	ldi	r25, 0x02	; 2
    173a:	74 dd       	rcall	.-1304   	; 0x1224 <oled_printf>
			break;
	}
}
    173c:	df 91       	pop	r29
    173e:	cf 91       	pop	r28
    1740:	08 95       	ret

00001742 <oled_in_game_with_gain_control>:

void oled_in_game_with_gain_control(int page, int kp, int ki, int kd){
    1742:	6f 92       	push	r6
    1744:	7f 92       	push	r7
    1746:	8f 92       	push	r8
    1748:	9f 92       	push	r9
    174a:	af 92       	push	r10
    174c:	bf 92       	push	r11
    174e:	cf 92       	push	r12
    1750:	df 92       	push	r13
    1752:	ef 92       	push	r14
    1754:	ff 92       	push	r15
    1756:	0f 93       	push	r16
    1758:	1f 93       	push	r17
    175a:	cf 93       	push	r28
    175c:	df 93       	push	r29
    175e:	00 d0       	rcall	.+0      	; 0x1760 <oled_in_game_with_gain_control+0x1e>
    1760:	00 d0       	rcall	.+0      	; 0x1762 <oled_in_game_with_gain_control+0x20>
    1762:	cd b7       	in	r28, 0x3d	; 61
    1764:	de b7       	in	r29, 0x3e	; 62
    1766:	4c 01       	movw	r8, r24
    1768:	8b 01       	movw	r16, r22
    176a:	5a 01       	movw	r10, r20
    176c:	69 01       	movw	r12, r18
	oled_clear_screen();
    176e:	c4 dc       	rcall	.-1656   	; 0x10f8 <oled_clear_screen>
	oled_page_select(1);
    1770:	81 e0       	ldi	r24, 0x01	; 1
    1772:	a3 dc       	rcall	.-1722   	; 0x10ba <oled_page_select>
	oled_printf_inverted("PID CONTROL\n");
    1774:	87 eb       	ldi	r24, 0xB7	; 183
    1776:	92 e0       	ldi	r25, 0x02	; 2
    1778:	78 dd       	rcall	.-1296   	; 0x126a <oled_printf_inverted>
	
	char str[4];
	
	oled_page_select(2);
    177a:	82 e0       	ldi	r24, 0x02	; 2
    177c:	9e dc       	rcall	.-1732   	; 0x10ba <oled_page_select>
	if(page == 2){
    177e:	82 e0       	ldi	r24, 0x02	; 2
    1780:	88 16       	cp	r8, r24
    1782:	91 04       	cpc	r9, r1
    1784:	09 f0       	breq	.+2      	; 0x1788 <oled_in_game_with_gain_control+0x46>
    1786:	58 c0       	rjmp	.+176    	; 0x1838 <oled_in_game_with_gain_control+0xf6>
		oled_printf_inverted("Kp = ");
    1788:	84 ec       	ldi	r24, 0xC4	; 196
    178a:	92 e0       	ldi	r25, 0x02	; 2
    178c:	6e dd       	rcall	.-1316   	; 0x126a <oled_printf_inverted>
	}else{
		oled_printf("Kp = ");
	}sprintf(str, "%d", kp/100);
    178e:	0f 2e       	mov	r0, r31
    1790:	f4 e6       	ldi	r31, 0x64	; 100
    1792:	8f 2e       	mov	r8, r31
    1794:	91 2c       	mov	r9, r1
    1796:	f0 2d       	mov	r31, r0
    1798:	c8 01       	movw	r24, r16
    179a:	b4 01       	movw	r22, r8
    179c:	0e d2       	rcall	.+1052   	; 0x1bba <__divmodhi4>
    179e:	78 2e       	mov	r7, r24
    17a0:	69 2e       	mov	r6, r25
    17a2:	7f 93       	push	r23
    17a4:	6f 93       	push	r22
    17a6:	0f 2e       	mov	r0, r31
    17a8:	f2 ed       	ldi	r31, 0xD2	; 210
    17aa:	ef 2e       	mov	r14, r31
    17ac:	f1 e0       	ldi	r31, 0x01	; 1
    17ae:	ff 2e       	mov	r15, r31
    17b0:	f0 2d       	mov	r31, r0
    17b2:	ff 92       	push	r15
    17b4:	ef 92       	push	r14
    17b6:	8e 01       	movw	r16, r28
    17b8:	0f 5f       	subi	r16, 0xFF	; 255
    17ba:	1f 4f       	sbci	r17, 0xFF	; 255
    17bc:	1f 93       	push	r17
    17be:	0f 93       	push	r16
    17c0:	7e d2       	rcall	.+1276   	; 0x1cbe <sprintf>
	oled_printf(str);
    17c2:	c8 01       	movw	r24, r16
    17c4:	2f dd       	rcall	.-1442   	; 0x1224 <oled_printf>
	oled_printf(".");
    17c6:	8a ec       	ldi	r24, 0xCA	; 202
    17c8:	92 e0       	ldi	r25, 0x02	; 2
    17ca:	2c dd       	rcall	.-1448   	; 0x1224 <oled_printf>
	sprintf(str, "%d", kp%100);
    17cc:	6f 92       	push	r6
    17ce:	7f 92       	push	r7
    17d0:	ff 92       	push	r15
    17d2:	ef 92       	push	r14
    17d4:	1f 93       	push	r17
    17d6:	0f 93       	push	r16
    17d8:	72 d2       	rcall	.+1252   	; 0x1cbe <sprintf>
	oled_printf(str);
    17da:	c8 01       	movw	r24, r16
    17dc:	23 dd       	rcall	.-1466   	; 0x1224 <oled_printf>
	oled_printf("\n");
    17de:	8e e3       	ldi	r24, 0x3E	; 62
    17e0:	92 e0       	ldi	r25, 0x02	; 2
    17e2:	20 dd       	rcall	.-1472   	; 0x1224 <oled_printf>
	oled_page_select(3);
    17e4:	83 e0       	ldi	r24, 0x03	; 3
    17e6:	69 dc       	rcall	.-1838   	; 0x10ba <oled_page_select>
	if(page == 3){
		oled_printf_inverted("Ki = ");
	}else{
		oled_printf("Ki = ");
    17e8:	8c ec       	ldi	r24, 0xCC	; 204
    17ea:	92 e0       	ldi	r25, 0x02	; 2
    17ec:	1b dd       	rcall	.-1482   	; 0x1224 <oled_printf>
	}sprintf(str, "%d", ki/100);
    17ee:	c5 01       	movw	r24, r10
    17f0:	b4 01       	movw	r22, r8
    17f2:	e3 d1       	rcall	.+966    	; 0x1bba <__divmodhi4>
    17f4:	b8 2e       	mov	r11, r24
    17f6:	a9 2e       	mov	r10, r25
    17f8:	7f 93       	push	r23
    17fa:	6f 93       	push	r22
    17fc:	ff 92       	push	r15
    17fe:	ef 92       	push	r14
    1800:	1f 93       	push	r17
    1802:	0f 93       	push	r16
    1804:	5c d2       	rcall	.+1208   	; 0x1cbe <sprintf>
	oled_printf(str);
    1806:	c8 01       	movw	r24, r16
    1808:	0d dd       	rcall	.-1510   	; 0x1224 <oled_printf>
	oled_printf(".");
    180a:	8a ec       	ldi	r24, 0xCA	; 202
    180c:	92 e0       	ldi	r25, 0x02	; 2
    180e:	0a dd       	rcall	.-1516   	; 0x1224 <oled_printf>
	sprintf(str, "%d", ki%100);
    1810:	af 92       	push	r10
    1812:	bf 92       	push	r11
    1814:	ff 92       	push	r15
    1816:	ef 92       	push	r14
    1818:	1f 93       	push	r17
    181a:	0f 93       	push	r16
    181c:	50 d2       	rcall	.+1184   	; 0x1cbe <sprintf>
	oled_printf(str);
    181e:	c8 01       	movw	r24, r16
    1820:	01 dd       	rcall	.-1534   	; 0x1224 <oled_printf>
	oled_printf("\n");
    1822:	8e e3       	ldi	r24, 0x3E	; 62
    1824:	92 e0       	ldi	r25, 0x02	; 2
    1826:	fe dc       	rcall	.-1540   	; 0x1224 <oled_printf>
	oled_page_select(4);
    1828:	84 e0       	ldi	r24, 0x04	; 4
    182a:	47 dc       	rcall	.-1906   	; 0x10ba <oled_page_select>
    182c:	0f b6       	in	r0, 0x3f	; 63
    182e:	f8 94       	cli
    1830:	de bf       	out	0x3e, r29	; 62
    1832:	0f be       	out	0x3f, r0	; 63
    1834:	cd bf       	out	0x3d, r28	; 61
    1836:	97 c0       	rjmp	.+302    	; 0x1966 <oled_in_game_with_gain_control+0x224>
	
	oled_page_select(2);
	if(page == 2){
		oled_printf_inverted("Kp = ");
	}else{
		oled_printf("Kp = ");
    1838:	84 ec       	ldi	r24, 0xC4	; 196
    183a:	92 e0       	ldi	r25, 0x02	; 2
    183c:	f3 dc       	rcall	.-1562   	; 0x1224 <oled_printf>
	}sprintf(str, "%d", kp/100);
    183e:	c8 01       	movw	r24, r16
    1840:	64 e6       	ldi	r22, 0x64	; 100
    1842:	70 e0       	ldi	r23, 0x00	; 0
    1844:	ba d1       	rcall	.+884    	; 0x1bba <__divmodhi4>
    1846:	78 2e       	mov	r7, r24
    1848:	69 2e       	mov	r6, r25
    184a:	7f 93       	push	r23
    184c:	6f 93       	push	r22
    184e:	0f 2e       	mov	r0, r31
    1850:	f2 ed       	ldi	r31, 0xD2	; 210
    1852:	ef 2e       	mov	r14, r31
    1854:	f1 e0       	ldi	r31, 0x01	; 1
    1856:	ff 2e       	mov	r15, r31
    1858:	f0 2d       	mov	r31, r0
    185a:	ff 92       	push	r15
    185c:	ef 92       	push	r14
    185e:	8e 01       	movw	r16, r28
    1860:	0f 5f       	subi	r16, 0xFF	; 255
    1862:	1f 4f       	sbci	r17, 0xFF	; 255
    1864:	1f 93       	push	r17
    1866:	0f 93       	push	r16
    1868:	2a d2       	rcall	.+1108   	; 0x1cbe <sprintf>
	oled_printf(str);
    186a:	c8 01       	movw	r24, r16
    186c:	db dc       	rcall	.-1610   	; 0x1224 <oled_printf>
	oled_printf(".");
    186e:	8a ec       	ldi	r24, 0xCA	; 202
    1870:	92 e0       	ldi	r25, 0x02	; 2
    1872:	d8 dc       	rcall	.-1616   	; 0x1224 <oled_printf>
	sprintf(str, "%d", kp%100);
    1874:	6f 92       	push	r6
    1876:	7f 92       	push	r7
    1878:	ff 92       	push	r15
    187a:	ef 92       	push	r14
    187c:	1f 93       	push	r17
    187e:	0f 93       	push	r16
    1880:	1e d2       	rcall	.+1084   	; 0x1cbe <sprintf>
	oled_printf(str);
    1882:	c8 01       	movw	r24, r16
    1884:	cf dc       	rcall	.-1634   	; 0x1224 <oled_printf>
	oled_printf("\n");
    1886:	8e e3       	ldi	r24, 0x3E	; 62
    1888:	92 e0       	ldi	r25, 0x02	; 2
    188a:	cc dc       	rcall	.-1640   	; 0x1224 <oled_printf>
	oled_page_select(3);
    188c:	83 e0       	ldi	r24, 0x03	; 3
    188e:	15 dc       	rcall	.-2006   	; 0x10ba <oled_page_select>
	if(page == 3){
    1890:	0f b6       	in	r0, 0x3f	; 63
    1892:	f8 94       	cli
    1894:	de bf       	out	0x3e, r29	; 62
    1896:	0f be       	out	0x3f, r0	; 63
    1898:	cd bf       	out	0x3d, r28	; 61
    189a:	93 e0       	ldi	r25, 0x03	; 3
    189c:	89 16       	cp	r8, r25
    189e:	91 04       	cpc	r9, r1
    18a0:	49 f5       	brne	.+82     	; 0x18f4 <oled_in_game_with_gain_control+0x1b2>
		oled_printf_inverted("Ki = ");
    18a2:	8c ec       	ldi	r24, 0xCC	; 204
    18a4:	92 e0       	ldi	r25, 0x02	; 2
    18a6:	e1 dc       	rcall	.-1598   	; 0x126a <oled_printf_inverted>
	}else{
		oled_printf("Ki = ");
	}sprintf(str, "%d", ki/100);
    18a8:	c5 01       	movw	r24, r10
    18aa:	64 e6       	ldi	r22, 0x64	; 100
    18ac:	70 e0       	ldi	r23, 0x00	; 0
    18ae:	85 d1       	rcall	.+778    	; 0x1bba <__divmodhi4>
    18b0:	b8 2e       	mov	r11, r24
    18b2:	a9 2e       	mov	r10, r25
    18b4:	7f 93       	push	r23
    18b6:	6f 93       	push	r22
    18b8:	ff 92       	push	r15
    18ba:	ef 92       	push	r14
    18bc:	1f 93       	push	r17
    18be:	0f 93       	push	r16
    18c0:	fe d1       	rcall	.+1020   	; 0x1cbe <sprintf>
	oled_printf(str);
    18c2:	c8 01       	movw	r24, r16
    18c4:	af dc       	rcall	.-1698   	; 0x1224 <oled_printf>
	oled_printf(".");
    18c6:	8a ec       	ldi	r24, 0xCA	; 202
    18c8:	92 e0       	ldi	r25, 0x02	; 2
    18ca:	ac dc       	rcall	.-1704   	; 0x1224 <oled_printf>
	sprintf(str, "%d", ki%100);
    18cc:	af 92       	push	r10
    18ce:	bf 92       	push	r11
    18d0:	ff 92       	push	r15
    18d2:	ef 92       	push	r14
    18d4:	1f 93       	push	r17
    18d6:	0f 93       	push	r16
    18d8:	f2 d1       	rcall	.+996    	; 0x1cbe <sprintf>
	oled_printf(str);
    18da:	c8 01       	movw	r24, r16
    18dc:	a3 dc       	rcall	.-1722   	; 0x1224 <oled_printf>
	oled_printf("\n");
    18de:	8e e3       	ldi	r24, 0x3E	; 62
    18e0:	92 e0       	ldi	r25, 0x02	; 2
    18e2:	a0 dc       	rcall	.-1728   	; 0x1224 <oled_printf>
	oled_page_select(4);
    18e4:	84 e0       	ldi	r24, 0x04	; 4
    18e6:	e9 db       	rcall	.-2094   	; 0x10ba <oled_page_select>
    18e8:	0f b6       	in	r0, 0x3f	; 63
    18ea:	f8 94       	cli
    18ec:	de bf       	out	0x3e, r29	; 62
    18ee:	0f be       	out	0x3f, r0	; 63
    18f0:	cd bf       	out	0x3d, r28	; 61
    18f2:	39 c0       	rjmp	.+114    	; 0x1966 <oled_in_game_with_gain_control+0x224>
	oled_printf("\n");
	oled_page_select(3);
	if(page == 3){
		oled_printf_inverted("Ki = ");
	}else{
		oled_printf("Ki = ");
    18f4:	8c ec       	ldi	r24, 0xCC	; 204
    18f6:	92 e0       	ldi	r25, 0x02	; 2
    18f8:	95 dc       	rcall	.-1750   	; 0x1224 <oled_printf>
	}sprintf(str, "%d", ki/100);
    18fa:	c5 01       	movw	r24, r10
    18fc:	64 e6       	ldi	r22, 0x64	; 100
    18fe:	70 e0       	ldi	r23, 0x00	; 0
    1900:	5c d1       	rcall	.+696    	; 0x1bba <__divmodhi4>
    1902:	b8 2e       	mov	r11, r24
    1904:	a9 2e       	mov	r10, r25
    1906:	7f 93       	push	r23
    1908:	6f 93       	push	r22
    190a:	0f 2e       	mov	r0, r31
    190c:	f2 ed       	ldi	r31, 0xD2	; 210
    190e:	ef 2e       	mov	r14, r31
    1910:	f1 e0       	ldi	r31, 0x01	; 1
    1912:	ff 2e       	mov	r15, r31
    1914:	f0 2d       	mov	r31, r0
    1916:	ff 92       	push	r15
    1918:	ef 92       	push	r14
    191a:	8e 01       	movw	r16, r28
    191c:	0f 5f       	subi	r16, 0xFF	; 255
    191e:	1f 4f       	sbci	r17, 0xFF	; 255
    1920:	1f 93       	push	r17
    1922:	0f 93       	push	r16
    1924:	cc d1       	rcall	.+920    	; 0x1cbe <sprintf>
	oled_printf(str);
    1926:	c8 01       	movw	r24, r16
    1928:	7d dc       	rcall	.-1798   	; 0x1224 <oled_printf>
	oled_printf(".");
    192a:	8a ec       	ldi	r24, 0xCA	; 202
    192c:	92 e0       	ldi	r25, 0x02	; 2
    192e:	7a dc       	rcall	.-1804   	; 0x1224 <oled_printf>
	sprintf(str, "%d", ki%100);
    1930:	af 92       	push	r10
    1932:	bf 92       	push	r11
    1934:	ff 92       	push	r15
    1936:	ef 92       	push	r14
    1938:	1f 93       	push	r17
    193a:	0f 93       	push	r16
    193c:	c0 d1       	rcall	.+896    	; 0x1cbe <sprintf>
	oled_printf(str);
    193e:	c8 01       	movw	r24, r16
    1940:	71 dc       	rcall	.-1822   	; 0x1224 <oled_printf>
	oled_printf("\n");
    1942:	8e e3       	ldi	r24, 0x3E	; 62
    1944:	92 e0       	ldi	r25, 0x02	; 2
    1946:	6e dc       	rcall	.-1828   	; 0x1224 <oled_printf>
	oled_page_select(4);
    1948:	84 e0       	ldi	r24, 0x04	; 4
    194a:	b7 db       	rcall	.-2194   	; 0x10ba <oled_page_select>
	if(page == 4){
    194c:	0f b6       	in	r0, 0x3f	; 63
    194e:	f8 94       	cli
    1950:	de bf       	out	0x3e, r29	; 62
    1952:	0f be       	out	0x3f, r0	; 63
    1954:	cd bf       	out	0x3d, r28	; 61
    1956:	94 e0       	ldi	r25, 0x04	; 4
    1958:	89 16       	cp	r8, r25
    195a:	91 04       	cpc	r9, r1
    195c:	21 f4       	brne	.+8      	; 0x1966 <oled_in_game_with_gain_control+0x224>
		oled_printf_inverted("Kd = ");
    195e:	82 ed       	ldi	r24, 0xD2	; 210
    1960:	92 e0       	ldi	r25, 0x02	; 2
    1962:	83 dc       	rcall	.-1786   	; 0x126a <oled_printf_inverted>
    1964:	03 c0       	rjmp	.+6      	; 0x196c <oled_in_game_with_gain_control+0x22a>
	}else{
		oled_printf("Kd = ");
    1966:	82 ed       	ldi	r24, 0xD2	; 210
    1968:	92 e0       	ldi	r25, 0x02	; 2
    196a:	5c dc       	rcall	.-1864   	; 0x1224 <oled_printf>
	}sprintf(str, "%d", kd/100);
    196c:	c6 01       	movw	r24, r12
    196e:	64 e6       	ldi	r22, 0x64	; 100
    1970:	70 e0       	ldi	r23, 0x00	; 0
    1972:	23 d1       	rcall	.+582    	; 0x1bba <__divmodhi4>
    1974:	d8 2e       	mov	r13, r24
    1976:	c9 2e       	mov	r12, r25
    1978:	7f 93       	push	r23
    197a:	6f 93       	push	r22
    197c:	0f 2e       	mov	r0, r31
    197e:	f2 ed       	ldi	r31, 0xD2	; 210
    1980:	ef 2e       	mov	r14, r31
    1982:	f1 e0       	ldi	r31, 0x01	; 1
    1984:	ff 2e       	mov	r15, r31
    1986:	f0 2d       	mov	r31, r0
    1988:	ff 92       	push	r15
    198a:	ef 92       	push	r14
    198c:	8e 01       	movw	r16, r28
    198e:	0f 5f       	subi	r16, 0xFF	; 255
    1990:	1f 4f       	sbci	r17, 0xFF	; 255
    1992:	1f 93       	push	r17
    1994:	0f 93       	push	r16
    1996:	93 d1       	rcall	.+806    	; 0x1cbe <sprintf>
	oled_printf(str);
    1998:	c8 01       	movw	r24, r16
    199a:	44 dc       	rcall	.-1912   	; 0x1224 <oled_printf>
	oled_printf(".");
    199c:	8a ec       	ldi	r24, 0xCA	; 202
    199e:	92 e0       	ldi	r25, 0x02	; 2
    19a0:	41 dc       	rcall	.-1918   	; 0x1224 <oled_printf>
	sprintf(str, "%d", kd%100);
    19a2:	cf 92       	push	r12
    19a4:	df 92       	push	r13
    19a6:	ff 92       	push	r15
    19a8:	ef 92       	push	r14
    19aa:	1f 93       	push	r17
    19ac:	0f 93       	push	r16
    19ae:	87 d1       	rcall	.+782    	; 0x1cbe <sprintf>
	oled_printf(str);
    19b0:	c8 01       	movw	r24, r16
    19b2:	38 dc       	rcall	.-1936   	; 0x1224 <oled_printf>
	oled_printf("\n");
    19b4:	8e e3       	ldi	r24, 0x3E	; 62
    19b6:	92 e0       	ldi	r25, 0x02	; 2
    19b8:	35 dc       	rcall	.-1942   	; 0x1224 <oled_printf>
    19ba:	0f b6       	in	r0, 0x3f	; 63
    19bc:	f8 94       	cli
    19be:	de bf       	out	0x3e, r29	; 62
    19c0:	0f be       	out	0x3f, r0	; 63
    19c2:	cd bf       	out	0x3d, r28	; 61
}
    19c4:	0f 90       	pop	r0
    19c6:	0f 90       	pop	r0
    19c8:	0f 90       	pop	r0
    19ca:	0f 90       	pop	r0
    19cc:	df 91       	pop	r29
    19ce:	cf 91       	pop	r28
    19d0:	1f 91       	pop	r17
    19d2:	0f 91       	pop	r16
    19d4:	ff 90       	pop	r15
    19d6:	ef 90       	pop	r14
    19d8:	df 90       	pop	r13
    19da:	cf 90       	pop	r12
    19dc:	bf 90       	pop	r11
    19de:	af 90       	pop	r10
    19e0:	9f 90       	pop	r9
    19e2:	8f 90       	pop	r8
    19e4:	7f 90       	pop	r7
    19e6:	6f 90       	pop	r6
    19e8:	08 95       	ret

000019ea <spi_init>:
    19ea:	80 eb       	ldi	r24, 0xB0	; 176
    19ec:	87 bb       	out	0x17, r24	; 23
    19ee:	c4 9a       	sbi	0x18, 4	; 24
    19f0:	81 e5       	ldi	r24, 0x51	; 81
    19f2:	8d b9       	out	0x0d, r24	; 13
    19f4:	08 95       	ret

000019f6 <spi_read>:
    19f6:	cf 93       	push	r28
    19f8:	df 93       	push	r29
    19fa:	cd b7       	in	r28, 0x3d	; 61
    19fc:	de b7       	in	r29, 0x3e	; 62
    19fe:	2a 97       	sbiw	r28, 0x0a	; 10
    1a00:	0f b6       	in	r0, 0x3f	; 63
    1a02:	f8 94       	cli
    1a04:	de bf       	out	0x3e, r29	; 62
    1a06:	0f be       	out	0x3f, r0	; 63
    1a08:	cd bf       	out	0x3d, r28	; 61
    1a0a:	66 23       	and	r22, r22
    1a0c:	81 f0       	breq	.+32     	; 0x1a2e <spi_read+0x38>
    1a0e:	fe 01       	movw	r30, r28
    1a10:	31 96       	adiw	r30, 0x01	; 1
    1a12:	a8 2f       	mov	r26, r24
    1a14:	b9 2f       	mov	r27, r25
    1a16:	cf 01       	movw	r24, r30
    1a18:	86 0f       	add	r24, r22
    1a1a:	91 1d       	adc	r25, r1
    1a1c:	21 91       	ld	r18, Z+
    1a1e:	2f b9       	out	0x0f, r18	; 15
    1a20:	77 9b       	sbis	0x0e, 7	; 14
    1a22:	fe cf       	rjmp	.-4      	; 0x1a20 <spi_read+0x2a>
    1a24:	2f b1       	in	r18, 0x0f	; 15
    1a26:	2d 93       	st	X+, r18
    1a28:	e8 17       	cp	r30, r24
    1a2a:	f9 07       	cpc	r31, r25
    1a2c:	b9 f7       	brne	.-18     	; 0x1a1c <spi_read+0x26>
    1a2e:	2a 96       	adiw	r28, 0x0a	; 10
    1a30:	0f b6       	in	r0, 0x3f	; 63
    1a32:	f8 94       	cli
    1a34:	de bf       	out	0x3e, r29	; 62
    1a36:	0f be       	out	0x3f, r0	; 63
    1a38:	cd bf       	out	0x3d, r28	; 61
    1a3a:	df 91       	pop	r29
    1a3c:	cf 91       	pop	r28
    1a3e:	08 95       	ret

00001a40 <spi_write>:
    1a40:	26 2f       	mov	r18, r22
    1a42:	30 e0       	ldi	r19, 0x00	; 0
    1a44:	12 16       	cp	r1, r18
    1a46:	13 06       	cpc	r1, r19
    1a48:	6c f4       	brge	.+26     	; 0x1a64 <spi_write+0x24>
    1a4a:	e8 2f       	mov	r30, r24
    1a4c:	f9 2f       	mov	r31, r25
    1a4e:	80 e0       	ldi	r24, 0x00	; 0
    1a50:	90 e0       	ldi	r25, 0x00	; 0
    1a52:	41 91       	ld	r20, Z+
    1a54:	4f b9       	out	0x0f, r20	; 15
    1a56:	77 9b       	sbis	0x0e, 7	; 14
    1a58:	fe cf       	rjmp	.-4      	; 0x1a56 <spi_write+0x16>
    1a5a:	4f b1       	in	r20, 0x0f	; 15
    1a5c:	01 96       	adiw	r24, 0x01	; 1
    1a5e:	82 17       	cp	r24, r18
    1a60:	93 07       	cpc	r25, r19
    1a62:	bc f3       	brlt	.-18     	; 0x1a52 <spi_write+0x12>
    1a64:	08 95       	ret

00001a66 <USART_Transmit>:
    1a66:	5d 9b       	sbis	0x0b, 5	; 11
    1a68:	fe cf       	rjmp	.-4      	; 0x1a66 <USART_Transmit>
    1a6a:	8c b9       	out	0x0c, r24	; 12
    1a6c:	08 95       	ret

00001a6e <USART_Receive>:
    1a6e:	5f 99       	sbic	0x0b, 7	; 11
    1a70:	fe cf       	rjmp	.-4      	; 0x1a6e <USART_Receive>
    1a72:	8c b1       	in	r24, 0x0c	; 12
    1a74:	08 95       	ret

00001a76 <USART_Init>:
    1a76:	90 bd       	out	0x20, r25	; 32
    1a78:	89 b9       	out	0x09, r24	; 9
    1a7a:	88 e9       	ldi	r24, 0x98	; 152
    1a7c:	8a b9       	out	0x0a, r24	; 10
    1a7e:	8e e8       	ldi	r24, 0x8E	; 142
    1a80:	80 bd       	out	0x20, r24	; 32
    1a82:	67 e3       	ldi	r22, 0x37	; 55
    1a84:	7d e0       	ldi	r23, 0x0D	; 13
    1a86:	83 e3       	ldi	r24, 0x33	; 51
    1a88:	9d e0       	ldi	r25, 0x0D	; 13
    1a8a:	be c0       	rjmp	.+380    	; 0x1c08 <fdevopen>
    1a8c:	08 95       	ret

00001a8e <xmem_init>:
    1a8e:	85 b7       	in	r24, 0x35	; 53
    1a90:	80 68       	ori	r24, 0x80	; 128
    1a92:	85 bf       	out	0x35, r24	; 53
    1a94:	80 b7       	in	r24, 0x30	; 48
    1a96:	80 62       	ori	r24, 0x20	; 32
    1a98:	80 bf       	out	0x30, r24	; 48
    1a9a:	08 95       	ret

00001a9c <xmem_write>:
    1a9c:	fb 01       	movw	r30, r22
    1a9e:	f0 5f       	subi	r31, 0xF0	; 240
    1aa0:	80 83       	st	Z, r24
    1aa2:	08 95       	ret

00001aa4 <xmem_read>:
    1aa4:	90 5f       	subi	r25, 0xF0	; 240
    1aa6:	fc 01       	movw	r30, r24
    1aa8:	80 81       	ld	r24, Z
    1aaa:	08 95       	ret

00001aac <global_init>:
#include "communication.h"


void global_init(){
	
	USART_Init(MYUBRR);
    1aac:	8f e1       	ldi	r24, 0x1F	; 31
    1aae:	90 e0       	ldi	r25, 0x00	; 0
    1ab0:	e2 df       	rcall	.-60     	; 0x1a76 <USART_Init>
	xmem_init();
    1ab2:	ed df       	rcall	.-38     	; 0x1a8e <xmem_init>
	oled_init();
    1ab4:	48 dc       	rcall	.-1904   	; 0x1346 <oled_init>
	adc_init();
    1ab6:	0e 94 f2 03 	call	0x7e4	; 0x7e4 <adc_init>
	can_init();
    1aba:	0e 94 09 04 	call	0x812	; 0x812 <can_init>
	//SRAM_test();
	
	DDRB &= ~(0b0111);	
    1abe:	87 b3       	in	r24, 0x17	; 23
    1ac0:	88 7f       	andi	r24, 0xF8	; 248
    1ac2:	87 bb       	out	0x17, r24	; 23
    1ac4:	08 95       	ret

00001ac6 <main>:
}


int main(void){
    1ac6:	cf 93       	push	r28
    1ac8:	df 93       	push	r29
    1aca:	cd b7       	in	r28, 0x3d	; 61
    1acc:	de b7       	in	r29, 0x3e	; 62
    1ace:	2d 97       	sbiw	r28, 0x0d	; 13
    1ad0:	0f b6       	in	r0, 0x3f	; 63
    1ad2:	f8 94       	cli
    1ad4:	de bf       	out	0x3e, r29	; 62
    1ad6:	0f be       	out	0x3f, r0	; 63
    1ad8:	cd bf       	out	0x3d, r28	; 61
	enum mode{IDLE, GAME, CONTROL};
	int new_game = 1;
	
	
	global_init();
    1ada:	e8 df       	rcall	.-48     	; 0x1aac <global_init>
	
	struct can_message message;
	message.id = 3;
    1adc:	83 e0       	ldi	r24, 0x03	; 3
    1ade:	90 e0       	ldi	r25, 0x00	; 0
    1ae0:	9a 83       	std	Y+2, r25	; 0x02
    1ae2:	89 83       	std	Y+1, r24	; 0x01
	message.length = 1;
    1ae4:	81 e0       	ldi	r24, 0x01	; 1
    1ae6:	8b 83       	std	Y+3, r24	; 0x03
	message.data[0] = 124;
    1ae8:	8c e7       	ldi	r24, 0x7C	; 124
    1aea:	8c 83       	std	Y+4, r24	; 0x04
	
	int current_mode = IDLE;
    1aec:	00 e0       	ldi	r16, 0x00	; 0
    1aee:	10 e0       	ldi	r17, 0x00	; 0
}


int main(void){
	enum mode{IDLE, GAME, CONTROL};
	int new_game = 1;
    1af0:	ee 24       	eor	r14, r14
    1af2:	e3 94       	inc	r14
    1af4:	f1 2c       	mov	r15, r1
    1af6:	c1 2c       	mov	r12, r1
    1af8:	d1 2c       	mov	r13, r1
				com_navigate_display();
				if (com_get_start_game()){
					current_mode = GAME;
					com_set_start_game();
				}else if (com_get_start_pid_control()){
				current_mode = CONTROL;
    1afa:	68 94       	set
    1afc:	88 24       	eor	r8, r8
    1afe:	81 f8       	bld	r8, 1
    1b00:	91 2c       	mov	r9, r1
	while(1){
		switch(current_mode){
			case IDLE:
				com_navigate_display();
				if (com_get_start_game()){
					current_mode = GAME;
    1b02:	aa 24       	eor	r10, r10
    1b04:	a3 94       	inc	r10
    1b06:	b1 2c       	mov	r11, r1
	message.length = 1;
	message.data[0] = 124;
	
	int current_mode = IDLE;
	while(1){
		switch(current_mode){
    1b08:	01 30       	cpi	r16, 0x01	; 1
    1b0a:	11 05       	cpc	r17, r1
    1b0c:	c9 f0       	breq	.+50     	; 0x1b40 <main+0x7a>
    1b0e:	02 30       	cpi	r16, 0x02	; 2
    1b10:	11 05       	cpc	r17, r1
    1b12:	09 f4       	brne	.+2      	; 0x1b16 <main+0x50>
    1b14:	38 c0       	rjmp	.+112    	; 0x1b86 <main+0xc0>
    1b16:	01 15       	cp	r16, r1
    1b18:	11 05       	cpc	r17, r1
    1b1a:	09 f0       	breq	.+2      	; 0x1b1e <main+0x58>
    1b1c:	3c c0       	rjmp	.+120    	; 0x1b96 <main+0xd0>
			case IDLE:
				com_navigate_display();
    1b1e:	0e 94 22 05 	call	0xa44	; 0xa44 <com_navigate_display>
				if (com_get_start_game()){
    1b22:	be d9       	rcall	.-3204   	; 0xea0 <com_get_start_game>
    1b24:	89 2b       	or	r24, r25
    1b26:	21 f0       	breq	.+8      	; 0x1b30 <main+0x6a>
					current_mode = GAME;
					com_set_start_game();
    1b28:	c0 d9       	rcall	.-3200   	; 0xeaa <com_set_start_game>
	while(1){
		switch(current_mode){
			case IDLE:
				com_navigate_display();
				if (com_get_start_game()){
					current_mode = GAME;
    1b2a:	0a 2d       	mov	r16, r10
    1b2c:	1b 2d       	mov	r17, r11
    1b2e:	3b c0       	rjmp	.+118    	; 0x1ba6 <main+0xe0>
					com_set_start_game();
				}else if (com_get_start_pid_control()){
    1b30:	35 da       	rcall	.-2966   	; 0xf9c <com_get_start_pid_control>
    1b32:	89 2b       	or	r24, r25
    1b34:	09 f4       	brne	.+2      	; 0x1b38 <main+0x72>
    1b36:	37 c0       	rjmp	.+110    	; 0x1ba6 <main+0xe0>
				current_mode = CONTROL;
				com_reset_start_pid_control();
    1b38:	36 da       	rcall	.-2964   	; 0xfa6 <com_reset_start_pid_control>
				com_navigate_display();
				if (com_get_start_game()){
					current_mode = GAME;
					com_set_start_game();
				}else if (com_get_start_pid_control()){
				current_mode = CONTROL;
    1b3a:	08 2d       	mov	r16, r8
    1b3c:	19 2d       	mov	r17, r9
    1b3e:	33 c0       	rjmp	.+102    	; 0x1ba6 <main+0xe0>
				com_reset_start_pid_control();
			}
				break;
			case GAME:
				if (new_game){
    1b40:	ef 28       	or	r14, r15
    1b42:	09 f0       	breq	.+2      	; 0x1b46 <main+0x80>
					com_reset_score();
    1b44:	94 d9       	rcall	.-3288   	; 0xe6e <com_reset_score>
					new_game = 0;
				}
				com_play_game();
    1b46:	12 d9       	rcall	.-3548   	; 0xd6c <com_play_game>
				if (com_get_back()){
    1b48:	a1 d9       	rcall	.-3262   	; 0xe8c <com_get_back>
    1b4a:	89 2b       	or	r24, r25
    1b4c:	19 f0       	breq	.+6      	; 0x1b54 <main+0x8e>
					current_mode = IDLE;
					com_set_back();
    1b4e:	a3 d9       	rcall	.-3258   	; 0xe96 <com_set_back>
					com_reset_score();
					new_game = 0;
				}
				com_play_game();
				if (com_get_back()){
					current_mode = IDLE;
    1b50:	0c 2d       	mov	r16, r12
    1b52:	1d 2d       	mov	r17, r13
					com_set_back();
				}
				if (can_get_message(&message))
    1b54:	ce 01       	movw	r24, r28
    1b56:	01 96       	adiw	r24, 0x01	; 1
    1b58:	0e 94 e7 04 	call	0x9ce	; 0x9ce <can_get_message>
    1b5c:	89 2b       	or	r24, r25
    1b5e:	f1 f0       	breq	.+60     	; 0x1b9c <main+0xd6>
				{
					if(message.id == 1){
    1b60:	89 81       	ldd	r24, Y+1	; 0x01
    1b62:	9a 81       	ldd	r25, Y+2	; 0x02
    1b64:	81 30       	cpi	r24, 0x01	; 1
    1b66:	91 05       	cpc	r25, r1
    1b68:	31 f4       	brne	.+12     	; 0x1b76 <main+0xb0>
						com_set_score(message.data[0]);
    1b6a:	8c 81       	ldd	r24, Y+4	; 0x04
    1b6c:	90 e0       	ldi	r25, 0x00	; 0
    1b6e:	89 d9       	rcall	.-3310   	; 0xe82 <com_set_score>
    1b70:	ec 2c       	mov	r14, r12
    1b72:	fd 2c       	mov	r15, r13
    1b74:	18 c0       	rjmp	.+48     	; 0x1ba6 <main+0xe0>
					}
					else if(message.id == 2){
    1b76:	02 97       	sbiw	r24, 0x02	; 2
    1b78:	a1 f4       	brne	.+40     	; 0x1ba2 <main+0xdc>
						oled_reduce_lives();
    1b7a:	62 dd       	rcall	.-1340   	; 0x1640 <oled_reduce_lives>
						oled_actualise_high_score();
    1b7c:	72 dd       	rcall	.-1308   	; 0x1662 <oled_actualise_high_score>
						com_reset_score();
    1b7e:	77 d9       	rcall	.-3346   	; 0xe6e <com_reset_score>
    1b80:	ec 2c       	mov	r14, r12
    1b82:	fd 2c       	mov	r15, r13
    1b84:	10 c0       	rjmp	.+32     	; 0x1ba6 <main+0xe0>
					}
					
				}
				break;
			case CONTROL:
				com_play_game_with_gain_control();
    1b86:	96 d9       	rcall	.-3284   	; 0xeb4 <com_play_game_with_gain_control>
				if (com_get_back()){
    1b88:	81 d9       	rcall	.-3326   	; 0xe8c <com_get_back>
    1b8a:	89 2b       	or	r24, r25
    1b8c:	61 f0       	breq	.+24     	; 0x1ba6 <main+0xe0>
					current_mode = IDLE;
					com_set_back();
    1b8e:	83 d9       	rcall	.-3322   	; 0xe96 <com_set_back>
				}
				break;
			case CONTROL:
				com_play_game_with_gain_control();
				if (com_get_back()){
					current_mode = IDLE;
    1b90:	0c 2d       	mov	r16, r12
    1b92:	1d 2d       	mov	r17, r13
    1b94:	08 c0       	rjmp	.+16     	; 0x1ba6 <main+0xe0>
					com_set_back();
				}
				break;
			default:
				com_navigate_display();
    1b96:	0e 94 22 05 	call	0xa44	; 0xa44 <com_navigate_display>
				break;
    1b9a:	05 c0       	rjmp	.+10     	; 0x1ba6 <main+0xe0>
    1b9c:	ec 2c       	mov	r14, r12
    1b9e:	fd 2c       	mov	r15, r13
    1ba0:	02 c0       	rjmp	.+4      	; 0x1ba6 <main+0xe0>
    1ba2:	ec 2c       	mov	r14, r12
    1ba4:	fd 2c       	mov	r15, r13
    1ba6:	2f ef       	ldi	r18, 0xFF	; 255
    1ba8:	8f e7       	ldi	r24, 0x7F	; 127
    1baa:	91 e0       	ldi	r25, 0x01	; 1
    1bac:	21 50       	subi	r18, 0x01	; 1
    1bae:	80 40       	sbci	r24, 0x00	; 0
    1bb0:	90 40       	sbci	r25, 0x00	; 0
    1bb2:	e1 f7       	brne	.-8      	; 0x1bac <main+0xe6>
    1bb4:	00 c0       	rjmp	.+0      	; 0x1bb6 <main+0xf0>
    1bb6:	00 c0       	rjmp	.+0      	; 0x1bb8 <main+0xf2>
    1bb8:	a7 cf       	rjmp	.-178    	; 0x1b08 <main+0x42>

00001bba <__divmodhi4>:
    1bba:	97 fb       	bst	r25, 7
    1bbc:	07 2e       	mov	r0, r23
    1bbe:	16 f4       	brtc	.+4      	; 0x1bc4 <__divmodhi4+0xa>
    1bc0:	00 94       	com	r0
    1bc2:	06 d0       	rcall	.+12     	; 0x1bd0 <__divmodhi4_neg1>
    1bc4:	77 fd       	sbrc	r23, 7
    1bc6:	08 d0       	rcall	.+16     	; 0x1bd8 <__divmodhi4_neg2>
    1bc8:	0b d0       	rcall	.+22     	; 0x1be0 <__udivmodhi4>
    1bca:	07 fc       	sbrc	r0, 7
    1bcc:	05 d0       	rcall	.+10     	; 0x1bd8 <__divmodhi4_neg2>
    1bce:	3e f4       	brtc	.+14     	; 0x1bde <__divmodhi4_exit>

00001bd0 <__divmodhi4_neg1>:
    1bd0:	90 95       	com	r25
    1bd2:	81 95       	neg	r24
    1bd4:	9f 4f       	sbci	r25, 0xFF	; 255
    1bd6:	08 95       	ret

00001bd8 <__divmodhi4_neg2>:
    1bd8:	70 95       	com	r23
    1bda:	61 95       	neg	r22
    1bdc:	7f 4f       	sbci	r23, 0xFF	; 255

00001bde <__divmodhi4_exit>:
    1bde:	08 95       	ret

00001be0 <__udivmodhi4>:
    1be0:	aa 1b       	sub	r26, r26
    1be2:	bb 1b       	sub	r27, r27
    1be4:	51 e1       	ldi	r21, 0x11	; 17
    1be6:	07 c0       	rjmp	.+14     	; 0x1bf6 <__udivmodhi4_ep>

00001be8 <__udivmodhi4_loop>:
    1be8:	aa 1f       	adc	r26, r26
    1bea:	bb 1f       	adc	r27, r27
    1bec:	a6 17       	cp	r26, r22
    1bee:	b7 07       	cpc	r27, r23
    1bf0:	10 f0       	brcs	.+4      	; 0x1bf6 <__udivmodhi4_ep>
    1bf2:	a6 1b       	sub	r26, r22
    1bf4:	b7 0b       	sbc	r27, r23

00001bf6 <__udivmodhi4_ep>:
    1bf6:	88 1f       	adc	r24, r24
    1bf8:	99 1f       	adc	r25, r25
    1bfa:	5a 95       	dec	r21
    1bfc:	a9 f7       	brne	.-22     	; 0x1be8 <__udivmodhi4_loop>
    1bfe:	80 95       	com	r24
    1c00:	90 95       	com	r25
    1c02:	bc 01       	movw	r22, r24
    1c04:	cd 01       	movw	r24, r26
    1c06:	08 95       	ret

00001c08 <fdevopen>:
    1c08:	0f 93       	push	r16
    1c0a:	1f 93       	push	r17
    1c0c:	cf 93       	push	r28
    1c0e:	df 93       	push	r29
    1c10:	ec 01       	movw	r28, r24
    1c12:	8b 01       	movw	r16, r22
    1c14:	00 97       	sbiw	r24, 0x00	; 0
    1c16:	31 f4       	brne	.+12     	; 0x1c24 <fdevopen+0x1c>
    1c18:	61 15       	cp	r22, r1
    1c1a:	71 05       	cpc	r23, r1
    1c1c:	19 f4       	brne	.+6      	; 0x1c24 <fdevopen+0x1c>
    1c1e:	80 e0       	ldi	r24, 0x00	; 0
    1c20:	90 e0       	ldi	r25, 0x00	; 0
    1c22:	37 c0       	rjmp	.+110    	; 0x1c92 <fdevopen+0x8a>
    1c24:	6e e0       	ldi	r22, 0x0E	; 14
    1c26:	70 e0       	ldi	r23, 0x00	; 0
    1c28:	81 e0       	ldi	r24, 0x01	; 1
    1c2a:	90 e0       	ldi	r25, 0x00	; 0
    1c2c:	2a d2       	rcall	.+1108   	; 0x2082 <calloc>
    1c2e:	fc 01       	movw	r30, r24
    1c30:	00 97       	sbiw	r24, 0x00	; 0
    1c32:	a9 f3       	breq	.-22     	; 0x1c1e <fdevopen+0x16>
    1c34:	80 e8       	ldi	r24, 0x80	; 128
    1c36:	83 83       	std	Z+3, r24	; 0x03
    1c38:	01 15       	cp	r16, r1
    1c3a:	11 05       	cpc	r17, r1
    1c3c:	71 f0       	breq	.+28     	; 0x1c5a <fdevopen+0x52>
    1c3e:	13 87       	std	Z+11, r17	; 0x0b
    1c40:	02 87       	std	Z+10, r16	; 0x0a
    1c42:	81 e8       	ldi	r24, 0x81	; 129
    1c44:	83 83       	std	Z+3, r24	; 0x03
    1c46:	80 91 ea 02 	lds	r24, 0x02EA
    1c4a:	90 91 eb 02 	lds	r25, 0x02EB
    1c4e:	89 2b       	or	r24, r25
    1c50:	21 f4       	brne	.+8      	; 0x1c5a <fdevopen+0x52>
    1c52:	f0 93 eb 02 	sts	0x02EB, r31
    1c56:	e0 93 ea 02 	sts	0x02EA, r30
    1c5a:	20 97       	sbiw	r28, 0x00	; 0
    1c5c:	c9 f0       	breq	.+50     	; 0x1c90 <fdevopen+0x88>
    1c5e:	d1 87       	std	Z+9, r29	; 0x09
    1c60:	c0 87       	std	Z+8, r28	; 0x08
    1c62:	83 81       	ldd	r24, Z+3	; 0x03
    1c64:	82 60       	ori	r24, 0x02	; 2
    1c66:	83 83       	std	Z+3, r24	; 0x03
    1c68:	80 91 ec 02 	lds	r24, 0x02EC
    1c6c:	90 91 ed 02 	lds	r25, 0x02ED
    1c70:	89 2b       	or	r24, r25
    1c72:	71 f4       	brne	.+28     	; 0x1c90 <fdevopen+0x88>
    1c74:	f0 93 ed 02 	sts	0x02ED, r31
    1c78:	e0 93 ec 02 	sts	0x02EC, r30
    1c7c:	80 91 ee 02 	lds	r24, 0x02EE
    1c80:	90 91 ef 02 	lds	r25, 0x02EF
    1c84:	89 2b       	or	r24, r25
    1c86:	21 f4       	brne	.+8      	; 0x1c90 <fdevopen+0x88>
    1c88:	f0 93 ef 02 	sts	0x02EF, r31
    1c8c:	e0 93 ee 02 	sts	0x02EE, r30
    1c90:	cf 01       	movw	r24, r30
    1c92:	df 91       	pop	r29
    1c94:	cf 91       	pop	r28
    1c96:	1f 91       	pop	r17
    1c98:	0f 91       	pop	r16
    1c9a:	08 95       	ret

00001c9c <printf>:
    1c9c:	a0 e0       	ldi	r26, 0x00	; 0
    1c9e:	b0 e0       	ldi	r27, 0x00	; 0
    1ca0:	e3 e5       	ldi	r30, 0x53	; 83
    1ca2:	fe e0       	ldi	r31, 0x0E	; 14
    1ca4:	ec c3       	rjmp	.+2008   	; 0x247e <__prologue_saves__+0x20>
    1ca6:	fe 01       	movw	r30, r28
    1ca8:	35 96       	adiw	r30, 0x05	; 5
    1caa:	61 91       	ld	r22, Z+
    1cac:	71 91       	ld	r23, Z+
    1cae:	af 01       	movw	r20, r30
    1cb0:	80 91 ec 02 	lds	r24, 0x02EC
    1cb4:	90 91 ed 02 	lds	r25, 0x02ED
    1cb8:	21 d0       	rcall	.+66     	; 0x1cfc <vfprintf>
    1cba:	e2 e0       	ldi	r30, 0x02	; 2
    1cbc:	fc c3       	rjmp	.+2040   	; 0x24b6 <__epilogue_restores__+0x20>

00001cbe <sprintf>:
    1cbe:	ae e0       	ldi	r26, 0x0E	; 14
    1cc0:	b0 e0       	ldi	r27, 0x00	; 0
    1cc2:	e4 e6       	ldi	r30, 0x64	; 100
    1cc4:	fe e0       	ldi	r31, 0x0E	; 14
    1cc6:	d9 c3       	rjmp	.+1970   	; 0x247a <__prologue_saves__+0x1c>
    1cc8:	0d 89       	ldd	r16, Y+21	; 0x15
    1cca:	1e 89       	ldd	r17, Y+22	; 0x16
    1ccc:	86 e0       	ldi	r24, 0x06	; 6
    1cce:	8c 83       	std	Y+4, r24	; 0x04
    1cd0:	1a 83       	std	Y+2, r17	; 0x02
    1cd2:	09 83       	std	Y+1, r16	; 0x01
    1cd4:	8f ef       	ldi	r24, 0xFF	; 255
    1cd6:	9f e7       	ldi	r25, 0x7F	; 127
    1cd8:	9e 83       	std	Y+6, r25	; 0x06
    1cda:	8d 83       	std	Y+5, r24	; 0x05
    1cdc:	ae 01       	movw	r20, r28
    1cde:	47 5e       	subi	r20, 0xE7	; 231
    1ce0:	5f 4f       	sbci	r21, 0xFF	; 255
    1ce2:	6f 89       	ldd	r22, Y+23	; 0x17
    1ce4:	78 8d       	ldd	r23, Y+24	; 0x18
    1ce6:	ce 01       	movw	r24, r28
    1ce8:	01 96       	adiw	r24, 0x01	; 1
    1cea:	08 d0       	rcall	.+16     	; 0x1cfc <vfprintf>
    1cec:	ef 81       	ldd	r30, Y+7	; 0x07
    1cee:	f8 85       	ldd	r31, Y+8	; 0x08
    1cf0:	e0 0f       	add	r30, r16
    1cf2:	f1 1f       	adc	r31, r17
    1cf4:	10 82       	st	Z, r1
    1cf6:	2e 96       	adiw	r28, 0x0e	; 14
    1cf8:	e4 e0       	ldi	r30, 0x04	; 4
    1cfa:	db c3       	rjmp	.+1974   	; 0x24b2 <__epilogue_restores__+0x1c>

00001cfc <vfprintf>:
    1cfc:	ac e0       	ldi	r26, 0x0C	; 12
    1cfe:	b0 e0       	ldi	r27, 0x00	; 0
    1d00:	e3 e8       	ldi	r30, 0x83	; 131
    1d02:	fe e0       	ldi	r31, 0x0E	; 14
    1d04:	ac c3       	rjmp	.+1880   	; 0x245e <__prologue_saves__>
    1d06:	7c 01       	movw	r14, r24
    1d08:	6b 01       	movw	r12, r22
    1d0a:	8a 01       	movw	r16, r20
    1d0c:	fc 01       	movw	r30, r24
    1d0e:	17 82       	std	Z+7, r1	; 0x07
    1d10:	16 82       	std	Z+6, r1	; 0x06
    1d12:	83 81       	ldd	r24, Z+3	; 0x03
    1d14:	81 ff       	sbrs	r24, 1
    1d16:	b0 c1       	rjmp	.+864    	; 0x2078 <vfprintf+0x37c>
    1d18:	ce 01       	movw	r24, r28
    1d1a:	01 96       	adiw	r24, 0x01	; 1
    1d1c:	4c 01       	movw	r8, r24
    1d1e:	f7 01       	movw	r30, r14
    1d20:	93 81       	ldd	r25, Z+3	; 0x03
    1d22:	f6 01       	movw	r30, r12
    1d24:	93 fd       	sbrc	r25, 3
    1d26:	85 91       	lpm	r24, Z+
    1d28:	93 ff       	sbrs	r25, 3
    1d2a:	81 91       	ld	r24, Z+
    1d2c:	6f 01       	movw	r12, r30
    1d2e:	88 23       	and	r24, r24
    1d30:	09 f4       	brne	.+2      	; 0x1d34 <vfprintf+0x38>
    1d32:	9e c1       	rjmp	.+828    	; 0x2070 <vfprintf+0x374>
    1d34:	85 32       	cpi	r24, 0x25	; 37
    1d36:	39 f4       	brne	.+14     	; 0x1d46 <vfprintf+0x4a>
    1d38:	93 fd       	sbrc	r25, 3
    1d3a:	85 91       	lpm	r24, Z+
    1d3c:	93 ff       	sbrs	r25, 3
    1d3e:	81 91       	ld	r24, Z+
    1d40:	6f 01       	movw	r12, r30
    1d42:	85 32       	cpi	r24, 0x25	; 37
    1d44:	21 f4       	brne	.+8      	; 0x1d4e <vfprintf+0x52>
    1d46:	b7 01       	movw	r22, r14
    1d48:	90 e0       	ldi	r25, 0x00	; 0
    1d4a:	f9 d2       	rcall	.+1522   	; 0x233e <fputc>
    1d4c:	e8 cf       	rjmp	.-48     	; 0x1d1e <vfprintf+0x22>
    1d4e:	51 2c       	mov	r5, r1
    1d50:	31 2c       	mov	r3, r1
    1d52:	20 e0       	ldi	r18, 0x00	; 0
    1d54:	20 32       	cpi	r18, 0x20	; 32
    1d56:	a0 f4       	brcc	.+40     	; 0x1d80 <vfprintf+0x84>
    1d58:	8b 32       	cpi	r24, 0x2B	; 43
    1d5a:	69 f0       	breq	.+26     	; 0x1d76 <vfprintf+0x7a>
    1d5c:	30 f4       	brcc	.+12     	; 0x1d6a <vfprintf+0x6e>
    1d5e:	80 32       	cpi	r24, 0x20	; 32
    1d60:	59 f0       	breq	.+22     	; 0x1d78 <vfprintf+0x7c>
    1d62:	83 32       	cpi	r24, 0x23	; 35
    1d64:	69 f4       	brne	.+26     	; 0x1d80 <vfprintf+0x84>
    1d66:	20 61       	ori	r18, 0x10	; 16
    1d68:	2c c0       	rjmp	.+88     	; 0x1dc2 <vfprintf+0xc6>
    1d6a:	8d 32       	cpi	r24, 0x2D	; 45
    1d6c:	39 f0       	breq	.+14     	; 0x1d7c <vfprintf+0x80>
    1d6e:	80 33       	cpi	r24, 0x30	; 48
    1d70:	39 f4       	brne	.+14     	; 0x1d80 <vfprintf+0x84>
    1d72:	21 60       	ori	r18, 0x01	; 1
    1d74:	26 c0       	rjmp	.+76     	; 0x1dc2 <vfprintf+0xc6>
    1d76:	22 60       	ori	r18, 0x02	; 2
    1d78:	24 60       	ori	r18, 0x04	; 4
    1d7a:	23 c0       	rjmp	.+70     	; 0x1dc2 <vfprintf+0xc6>
    1d7c:	28 60       	ori	r18, 0x08	; 8
    1d7e:	21 c0       	rjmp	.+66     	; 0x1dc2 <vfprintf+0xc6>
    1d80:	27 fd       	sbrc	r18, 7
    1d82:	27 c0       	rjmp	.+78     	; 0x1dd2 <vfprintf+0xd6>
    1d84:	30 ed       	ldi	r19, 0xD0	; 208
    1d86:	38 0f       	add	r19, r24
    1d88:	3a 30       	cpi	r19, 0x0A	; 10
    1d8a:	78 f4       	brcc	.+30     	; 0x1daa <vfprintf+0xae>
    1d8c:	26 ff       	sbrs	r18, 6
    1d8e:	06 c0       	rjmp	.+12     	; 0x1d9c <vfprintf+0xa0>
    1d90:	fa e0       	ldi	r31, 0x0A	; 10
    1d92:	5f 9e       	mul	r5, r31
    1d94:	30 0d       	add	r19, r0
    1d96:	11 24       	eor	r1, r1
    1d98:	53 2e       	mov	r5, r19
    1d9a:	13 c0       	rjmp	.+38     	; 0x1dc2 <vfprintf+0xc6>
    1d9c:	8a e0       	ldi	r24, 0x0A	; 10
    1d9e:	38 9e       	mul	r3, r24
    1da0:	30 0d       	add	r19, r0
    1da2:	11 24       	eor	r1, r1
    1da4:	33 2e       	mov	r3, r19
    1da6:	20 62       	ori	r18, 0x20	; 32
    1da8:	0c c0       	rjmp	.+24     	; 0x1dc2 <vfprintf+0xc6>
    1daa:	8e 32       	cpi	r24, 0x2E	; 46
    1dac:	21 f4       	brne	.+8      	; 0x1db6 <vfprintf+0xba>
    1dae:	26 fd       	sbrc	r18, 6
    1db0:	5f c1       	rjmp	.+702    	; 0x2070 <vfprintf+0x374>
    1db2:	20 64       	ori	r18, 0x40	; 64
    1db4:	06 c0       	rjmp	.+12     	; 0x1dc2 <vfprintf+0xc6>
    1db6:	8c 36       	cpi	r24, 0x6C	; 108
    1db8:	11 f4       	brne	.+4      	; 0x1dbe <vfprintf+0xc2>
    1dba:	20 68       	ori	r18, 0x80	; 128
    1dbc:	02 c0       	rjmp	.+4      	; 0x1dc2 <vfprintf+0xc6>
    1dbe:	88 36       	cpi	r24, 0x68	; 104
    1dc0:	41 f4       	brne	.+16     	; 0x1dd2 <vfprintf+0xd6>
    1dc2:	f6 01       	movw	r30, r12
    1dc4:	93 fd       	sbrc	r25, 3
    1dc6:	85 91       	lpm	r24, Z+
    1dc8:	93 ff       	sbrs	r25, 3
    1dca:	81 91       	ld	r24, Z+
    1dcc:	6f 01       	movw	r12, r30
    1dce:	81 11       	cpse	r24, r1
    1dd0:	c1 cf       	rjmp	.-126    	; 0x1d54 <vfprintf+0x58>
    1dd2:	98 2f       	mov	r25, r24
    1dd4:	9f 7d       	andi	r25, 0xDF	; 223
    1dd6:	95 54       	subi	r25, 0x45	; 69
    1dd8:	93 30       	cpi	r25, 0x03	; 3
    1dda:	28 f4       	brcc	.+10     	; 0x1de6 <vfprintf+0xea>
    1ddc:	0c 5f       	subi	r16, 0xFC	; 252
    1dde:	1f 4f       	sbci	r17, 0xFF	; 255
    1de0:	ff e3       	ldi	r31, 0x3F	; 63
    1de2:	f9 83       	std	Y+1, r31	; 0x01
    1de4:	0d c0       	rjmp	.+26     	; 0x1e00 <vfprintf+0x104>
    1de6:	83 36       	cpi	r24, 0x63	; 99
    1de8:	31 f0       	breq	.+12     	; 0x1df6 <vfprintf+0xfa>
    1dea:	83 37       	cpi	r24, 0x73	; 115
    1dec:	71 f0       	breq	.+28     	; 0x1e0a <vfprintf+0x10e>
    1dee:	83 35       	cpi	r24, 0x53	; 83
    1df0:	09 f0       	breq	.+2      	; 0x1df4 <vfprintf+0xf8>
    1df2:	57 c0       	rjmp	.+174    	; 0x1ea2 <vfprintf+0x1a6>
    1df4:	21 c0       	rjmp	.+66     	; 0x1e38 <vfprintf+0x13c>
    1df6:	f8 01       	movw	r30, r16
    1df8:	80 81       	ld	r24, Z
    1dfa:	89 83       	std	Y+1, r24	; 0x01
    1dfc:	0e 5f       	subi	r16, 0xFE	; 254
    1dfe:	1f 4f       	sbci	r17, 0xFF	; 255
    1e00:	44 24       	eor	r4, r4
    1e02:	43 94       	inc	r4
    1e04:	51 2c       	mov	r5, r1
    1e06:	54 01       	movw	r10, r8
    1e08:	14 c0       	rjmp	.+40     	; 0x1e32 <vfprintf+0x136>
    1e0a:	38 01       	movw	r6, r16
    1e0c:	f2 e0       	ldi	r31, 0x02	; 2
    1e0e:	6f 0e       	add	r6, r31
    1e10:	71 1c       	adc	r7, r1
    1e12:	f8 01       	movw	r30, r16
    1e14:	a0 80       	ld	r10, Z
    1e16:	b1 80       	ldd	r11, Z+1	; 0x01
    1e18:	26 ff       	sbrs	r18, 6
    1e1a:	03 c0       	rjmp	.+6      	; 0x1e22 <vfprintf+0x126>
    1e1c:	65 2d       	mov	r22, r5
    1e1e:	70 e0       	ldi	r23, 0x00	; 0
    1e20:	02 c0       	rjmp	.+4      	; 0x1e26 <vfprintf+0x12a>
    1e22:	6f ef       	ldi	r22, 0xFF	; 255
    1e24:	7f ef       	ldi	r23, 0xFF	; 255
    1e26:	c5 01       	movw	r24, r10
    1e28:	2c 87       	std	Y+12, r18	; 0x0c
    1e2a:	7e d2       	rcall	.+1276   	; 0x2328 <strnlen>
    1e2c:	2c 01       	movw	r4, r24
    1e2e:	83 01       	movw	r16, r6
    1e30:	2c 85       	ldd	r18, Y+12	; 0x0c
    1e32:	2f 77       	andi	r18, 0x7F	; 127
    1e34:	22 2e       	mov	r2, r18
    1e36:	16 c0       	rjmp	.+44     	; 0x1e64 <vfprintf+0x168>
    1e38:	38 01       	movw	r6, r16
    1e3a:	f2 e0       	ldi	r31, 0x02	; 2
    1e3c:	6f 0e       	add	r6, r31
    1e3e:	71 1c       	adc	r7, r1
    1e40:	f8 01       	movw	r30, r16
    1e42:	a0 80       	ld	r10, Z
    1e44:	b1 80       	ldd	r11, Z+1	; 0x01
    1e46:	26 ff       	sbrs	r18, 6
    1e48:	03 c0       	rjmp	.+6      	; 0x1e50 <vfprintf+0x154>
    1e4a:	65 2d       	mov	r22, r5
    1e4c:	70 e0       	ldi	r23, 0x00	; 0
    1e4e:	02 c0       	rjmp	.+4      	; 0x1e54 <vfprintf+0x158>
    1e50:	6f ef       	ldi	r22, 0xFF	; 255
    1e52:	7f ef       	ldi	r23, 0xFF	; 255
    1e54:	c5 01       	movw	r24, r10
    1e56:	2c 87       	std	Y+12, r18	; 0x0c
    1e58:	55 d2       	rcall	.+1194   	; 0x2304 <strnlen_P>
    1e5a:	2c 01       	movw	r4, r24
    1e5c:	2c 85       	ldd	r18, Y+12	; 0x0c
    1e5e:	20 68       	ori	r18, 0x80	; 128
    1e60:	22 2e       	mov	r2, r18
    1e62:	83 01       	movw	r16, r6
    1e64:	23 fc       	sbrc	r2, 3
    1e66:	19 c0       	rjmp	.+50     	; 0x1e9a <vfprintf+0x19e>
    1e68:	83 2d       	mov	r24, r3
    1e6a:	90 e0       	ldi	r25, 0x00	; 0
    1e6c:	48 16       	cp	r4, r24
    1e6e:	59 06       	cpc	r5, r25
    1e70:	a0 f4       	brcc	.+40     	; 0x1e9a <vfprintf+0x19e>
    1e72:	b7 01       	movw	r22, r14
    1e74:	80 e2       	ldi	r24, 0x20	; 32
    1e76:	90 e0       	ldi	r25, 0x00	; 0
    1e78:	62 d2       	rcall	.+1220   	; 0x233e <fputc>
    1e7a:	3a 94       	dec	r3
    1e7c:	f5 cf       	rjmp	.-22     	; 0x1e68 <vfprintf+0x16c>
    1e7e:	f5 01       	movw	r30, r10
    1e80:	27 fc       	sbrc	r2, 7
    1e82:	85 91       	lpm	r24, Z+
    1e84:	27 fe       	sbrs	r2, 7
    1e86:	81 91       	ld	r24, Z+
    1e88:	5f 01       	movw	r10, r30
    1e8a:	b7 01       	movw	r22, r14
    1e8c:	90 e0       	ldi	r25, 0x00	; 0
    1e8e:	57 d2       	rcall	.+1198   	; 0x233e <fputc>
    1e90:	31 10       	cpse	r3, r1
    1e92:	3a 94       	dec	r3
    1e94:	f1 e0       	ldi	r31, 0x01	; 1
    1e96:	4f 1a       	sub	r4, r31
    1e98:	51 08       	sbc	r5, r1
    1e9a:	41 14       	cp	r4, r1
    1e9c:	51 04       	cpc	r5, r1
    1e9e:	79 f7       	brne	.-34     	; 0x1e7e <vfprintf+0x182>
    1ea0:	de c0       	rjmp	.+444    	; 0x205e <vfprintf+0x362>
    1ea2:	84 36       	cpi	r24, 0x64	; 100
    1ea4:	11 f0       	breq	.+4      	; 0x1eaa <vfprintf+0x1ae>
    1ea6:	89 36       	cpi	r24, 0x69	; 105
    1ea8:	31 f5       	brne	.+76     	; 0x1ef6 <vfprintf+0x1fa>
    1eaa:	f8 01       	movw	r30, r16
    1eac:	27 ff       	sbrs	r18, 7
    1eae:	07 c0       	rjmp	.+14     	; 0x1ebe <vfprintf+0x1c2>
    1eb0:	60 81       	ld	r22, Z
    1eb2:	71 81       	ldd	r23, Z+1	; 0x01
    1eb4:	82 81       	ldd	r24, Z+2	; 0x02
    1eb6:	93 81       	ldd	r25, Z+3	; 0x03
    1eb8:	0c 5f       	subi	r16, 0xFC	; 252
    1eba:	1f 4f       	sbci	r17, 0xFF	; 255
    1ebc:	08 c0       	rjmp	.+16     	; 0x1ece <vfprintf+0x1d2>
    1ebe:	60 81       	ld	r22, Z
    1ec0:	71 81       	ldd	r23, Z+1	; 0x01
    1ec2:	88 27       	eor	r24, r24
    1ec4:	77 fd       	sbrc	r23, 7
    1ec6:	80 95       	com	r24
    1ec8:	98 2f       	mov	r25, r24
    1eca:	0e 5f       	subi	r16, 0xFE	; 254
    1ecc:	1f 4f       	sbci	r17, 0xFF	; 255
    1ece:	2f 76       	andi	r18, 0x6F	; 111
    1ed0:	b2 2e       	mov	r11, r18
    1ed2:	97 ff       	sbrs	r25, 7
    1ed4:	09 c0       	rjmp	.+18     	; 0x1ee8 <vfprintf+0x1ec>
    1ed6:	90 95       	com	r25
    1ed8:	80 95       	com	r24
    1eda:	70 95       	com	r23
    1edc:	61 95       	neg	r22
    1ede:	7f 4f       	sbci	r23, 0xFF	; 255
    1ee0:	8f 4f       	sbci	r24, 0xFF	; 255
    1ee2:	9f 4f       	sbci	r25, 0xFF	; 255
    1ee4:	20 68       	ori	r18, 0x80	; 128
    1ee6:	b2 2e       	mov	r11, r18
    1ee8:	2a e0       	ldi	r18, 0x0A	; 10
    1eea:	30 e0       	ldi	r19, 0x00	; 0
    1eec:	a4 01       	movw	r20, r8
    1eee:	59 d2       	rcall	.+1202   	; 0x23a2 <__ultoa_invert>
    1ef0:	a8 2e       	mov	r10, r24
    1ef2:	a8 18       	sub	r10, r8
    1ef4:	43 c0       	rjmp	.+134    	; 0x1f7c <vfprintf+0x280>
    1ef6:	85 37       	cpi	r24, 0x75	; 117
    1ef8:	29 f4       	brne	.+10     	; 0x1f04 <vfprintf+0x208>
    1efa:	2f 7e       	andi	r18, 0xEF	; 239
    1efc:	b2 2e       	mov	r11, r18
    1efe:	2a e0       	ldi	r18, 0x0A	; 10
    1f00:	30 e0       	ldi	r19, 0x00	; 0
    1f02:	25 c0       	rjmp	.+74     	; 0x1f4e <vfprintf+0x252>
    1f04:	f2 2f       	mov	r31, r18
    1f06:	f9 7f       	andi	r31, 0xF9	; 249
    1f08:	bf 2e       	mov	r11, r31
    1f0a:	8f 36       	cpi	r24, 0x6F	; 111
    1f0c:	c1 f0       	breq	.+48     	; 0x1f3e <vfprintf+0x242>
    1f0e:	18 f4       	brcc	.+6      	; 0x1f16 <vfprintf+0x21a>
    1f10:	88 35       	cpi	r24, 0x58	; 88
    1f12:	79 f0       	breq	.+30     	; 0x1f32 <vfprintf+0x236>
    1f14:	ad c0       	rjmp	.+346    	; 0x2070 <vfprintf+0x374>
    1f16:	80 37       	cpi	r24, 0x70	; 112
    1f18:	19 f0       	breq	.+6      	; 0x1f20 <vfprintf+0x224>
    1f1a:	88 37       	cpi	r24, 0x78	; 120
    1f1c:	21 f0       	breq	.+8      	; 0x1f26 <vfprintf+0x22a>
    1f1e:	a8 c0       	rjmp	.+336    	; 0x2070 <vfprintf+0x374>
    1f20:	2f 2f       	mov	r18, r31
    1f22:	20 61       	ori	r18, 0x10	; 16
    1f24:	b2 2e       	mov	r11, r18
    1f26:	b4 fe       	sbrs	r11, 4
    1f28:	0d c0       	rjmp	.+26     	; 0x1f44 <vfprintf+0x248>
    1f2a:	8b 2d       	mov	r24, r11
    1f2c:	84 60       	ori	r24, 0x04	; 4
    1f2e:	b8 2e       	mov	r11, r24
    1f30:	09 c0       	rjmp	.+18     	; 0x1f44 <vfprintf+0x248>
    1f32:	24 ff       	sbrs	r18, 4
    1f34:	0a c0       	rjmp	.+20     	; 0x1f4a <vfprintf+0x24e>
    1f36:	9f 2f       	mov	r25, r31
    1f38:	96 60       	ori	r25, 0x06	; 6
    1f3a:	b9 2e       	mov	r11, r25
    1f3c:	06 c0       	rjmp	.+12     	; 0x1f4a <vfprintf+0x24e>
    1f3e:	28 e0       	ldi	r18, 0x08	; 8
    1f40:	30 e0       	ldi	r19, 0x00	; 0
    1f42:	05 c0       	rjmp	.+10     	; 0x1f4e <vfprintf+0x252>
    1f44:	20 e1       	ldi	r18, 0x10	; 16
    1f46:	30 e0       	ldi	r19, 0x00	; 0
    1f48:	02 c0       	rjmp	.+4      	; 0x1f4e <vfprintf+0x252>
    1f4a:	20 e1       	ldi	r18, 0x10	; 16
    1f4c:	32 e0       	ldi	r19, 0x02	; 2
    1f4e:	f8 01       	movw	r30, r16
    1f50:	b7 fe       	sbrs	r11, 7
    1f52:	07 c0       	rjmp	.+14     	; 0x1f62 <vfprintf+0x266>
    1f54:	60 81       	ld	r22, Z
    1f56:	71 81       	ldd	r23, Z+1	; 0x01
    1f58:	82 81       	ldd	r24, Z+2	; 0x02
    1f5a:	93 81       	ldd	r25, Z+3	; 0x03
    1f5c:	0c 5f       	subi	r16, 0xFC	; 252
    1f5e:	1f 4f       	sbci	r17, 0xFF	; 255
    1f60:	06 c0       	rjmp	.+12     	; 0x1f6e <vfprintf+0x272>
    1f62:	60 81       	ld	r22, Z
    1f64:	71 81       	ldd	r23, Z+1	; 0x01
    1f66:	80 e0       	ldi	r24, 0x00	; 0
    1f68:	90 e0       	ldi	r25, 0x00	; 0
    1f6a:	0e 5f       	subi	r16, 0xFE	; 254
    1f6c:	1f 4f       	sbci	r17, 0xFF	; 255
    1f6e:	a4 01       	movw	r20, r8
    1f70:	18 d2       	rcall	.+1072   	; 0x23a2 <__ultoa_invert>
    1f72:	a8 2e       	mov	r10, r24
    1f74:	a8 18       	sub	r10, r8
    1f76:	fb 2d       	mov	r31, r11
    1f78:	ff 77       	andi	r31, 0x7F	; 127
    1f7a:	bf 2e       	mov	r11, r31
    1f7c:	b6 fe       	sbrs	r11, 6
    1f7e:	0b c0       	rjmp	.+22     	; 0x1f96 <vfprintf+0x29a>
    1f80:	2b 2d       	mov	r18, r11
    1f82:	2e 7f       	andi	r18, 0xFE	; 254
    1f84:	a5 14       	cp	r10, r5
    1f86:	50 f4       	brcc	.+20     	; 0x1f9c <vfprintf+0x2a0>
    1f88:	b4 fe       	sbrs	r11, 4
    1f8a:	0a c0       	rjmp	.+20     	; 0x1fa0 <vfprintf+0x2a4>
    1f8c:	b2 fc       	sbrc	r11, 2
    1f8e:	08 c0       	rjmp	.+16     	; 0x1fa0 <vfprintf+0x2a4>
    1f90:	2b 2d       	mov	r18, r11
    1f92:	2e 7e       	andi	r18, 0xEE	; 238
    1f94:	05 c0       	rjmp	.+10     	; 0x1fa0 <vfprintf+0x2a4>
    1f96:	7a 2c       	mov	r7, r10
    1f98:	2b 2d       	mov	r18, r11
    1f9a:	03 c0       	rjmp	.+6      	; 0x1fa2 <vfprintf+0x2a6>
    1f9c:	7a 2c       	mov	r7, r10
    1f9e:	01 c0       	rjmp	.+2      	; 0x1fa2 <vfprintf+0x2a6>
    1fa0:	75 2c       	mov	r7, r5
    1fa2:	24 ff       	sbrs	r18, 4
    1fa4:	0d c0       	rjmp	.+26     	; 0x1fc0 <vfprintf+0x2c4>
    1fa6:	fe 01       	movw	r30, r28
    1fa8:	ea 0d       	add	r30, r10
    1faa:	f1 1d       	adc	r31, r1
    1fac:	80 81       	ld	r24, Z
    1fae:	80 33       	cpi	r24, 0x30	; 48
    1fb0:	11 f4       	brne	.+4      	; 0x1fb6 <vfprintf+0x2ba>
    1fb2:	29 7e       	andi	r18, 0xE9	; 233
    1fb4:	09 c0       	rjmp	.+18     	; 0x1fc8 <vfprintf+0x2cc>
    1fb6:	22 ff       	sbrs	r18, 2
    1fb8:	06 c0       	rjmp	.+12     	; 0x1fc6 <vfprintf+0x2ca>
    1fba:	73 94       	inc	r7
    1fbc:	73 94       	inc	r7
    1fbe:	04 c0       	rjmp	.+8      	; 0x1fc8 <vfprintf+0x2cc>
    1fc0:	82 2f       	mov	r24, r18
    1fc2:	86 78       	andi	r24, 0x86	; 134
    1fc4:	09 f0       	breq	.+2      	; 0x1fc8 <vfprintf+0x2cc>
    1fc6:	73 94       	inc	r7
    1fc8:	23 fd       	sbrc	r18, 3
    1fca:	12 c0       	rjmp	.+36     	; 0x1ff0 <vfprintf+0x2f4>
    1fcc:	20 ff       	sbrs	r18, 0
    1fce:	06 c0       	rjmp	.+12     	; 0x1fdc <vfprintf+0x2e0>
    1fd0:	5a 2c       	mov	r5, r10
    1fd2:	73 14       	cp	r7, r3
    1fd4:	18 f4       	brcc	.+6      	; 0x1fdc <vfprintf+0x2e0>
    1fd6:	53 0c       	add	r5, r3
    1fd8:	57 18       	sub	r5, r7
    1fda:	73 2c       	mov	r7, r3
    1fdc:	73 14       	cp	r7, r3
    1fde:	60 f4       	brcc	.+24     	; 0x1ff8 <vfprintf+0x2fc>
    1fe0:	b7 01       	movw	r22, r14
    1fe2:	80 e2       	ldi	r24, 0x20	; 32
    1fe4:	90 e0       	ldi	r25, 0x00	; 0
    1fe6:	2c 87       	std	Y+12, r18	; 0x0c
    1fe8:	aa d1       	rcall	.+852    	; 0x233e <fputc>
    1fea:	73 94       	inc	r7
    1fec:	2c 85       	ldd	r18, Y+12	; 0x0c
    1fee:	f6 cf       	rjmp	.-20     	; 0x1fdc <vfprintf+0x2e0>
    1ff0:	73 14       	cp	r7, r3
    1ff2:	10 f4       	brcc	.+4      	; 0x1ff8 <vfprintf+0x2fc>
    1ff4:	37 18       	sub	r3, r7
    1ff6:	01 c0       	rjmp	.+2      	; 0x1ffa <vfprintf+0x2fe>
    1ff8:	31 2c       	mov	r3, r1
    1ffa:	24 ff       	sbrs	r18, 4
    1ffc:	11 c0       	rjmp	.+34     	; 0x2020 <vfprintf+0x324>
    1ffe:	b7 01       	movw	r22, r14
    2000:	80 e3       	ldi	r24, 0x30	; 48
    2002:	90 e0       	ldi	r25, 0x00	; 0
    2004:	2c 87       	std	Y+12, r18	; 0x0c
    2006:	9b d1       	rcall	.+822    	; 0x233e <fputc>
    2008:	2c 85       	ldd	r18, Y+12	; 0x0c
    200a:	22 ff       	sbrs	r18, 2
    200c:	16 c0       	rjmp	.+44     	; 0x203a <vfprintf+0x33e>
    200e:	21 ff       	sbrs	r18, 1
    2010:	03 c0       	rjmp	.+6      	; 0x2018 <vfprintf+0x31c>
    2012:	88 e5       	ldi	r24, 0x58	; 88
    2014:	90 e0       	ldi	r25, 0x00	; 0
    2016:	02 c0       	rjmp	.+4      	; 0x201c <vfprintf+0x320>
    2018:	88 e7       	ldi	r24, 0x78	; 120
    201a:	90 e0       	ldi	r25, 0x00	; 0
    201c:	b7 01       	movw	r22, r14
    201e:	0c c0       	rjmp	.+24     	; 0x2038 <vfprintf+0x33c>
    2020:	82 2f       	mov	r24, r18
    2022:	86 78       	andi	r24, 0x86	; 134
    2024:	51 f0       	breq	.+20     	; 0x203a <vfprintf+0x33e>
    2026:	21 fd       	sbrc	r18, 1
    2028:	02 c0       	rjmp	.+4      	; 0x202e <vfprintf+0x332>
    202a:	80 e2       	ldi	r24, 0x20	; 32
    202c:	01 c0       	rjmp	.+2      	; 0x2030 <vfprintf+0x334>
    202e:	8b e2       	ldi	r24, 0x2B	; 43
    2030:	27 fd       	sbrc	r18, 7
    2032:	8d e2       	ldi	r24, 0x2D	; 45
    2034:	b7 01       	movw	r22, r14
    2036:	90 e0       	ldi	r25, 0x00	; 0
    2038:	82 d1       	rcall	.+772    	; 0x233e <fputc>
    203a:	a5 14       	cp	r10, r5
    203c:	30 f4       	brcc	.+12     	; 0x204a <vfprintf+0x34e>
    203e:	b7 01       	movw	r22, r14
    2040:	80 e3       	ldi	r24, 0x30	; 48
    2042:	90 e0       	ldi	r25, 0x00	; 0
    2044:	7c d1       	rcall	.+760    	; 0x233e <fputc>
    2046:	5a 94       	dec	r5
    2048:	f8 cf       	rjmp	.-16     	; 0x203a <vfprintf+0x33e>
    204a:	aa 94       	dec	r10
    204c:	f4 01       	movw	r30, r8
    204e:	ea 0d       	add	r30, r10
    2050:	f1 1d       	adc	r31, r1
    2052:	80 81       	ld	r24, Z
    2054:	b7 01       	movw	r22, r14
    2056:	90 e0       	ldi	r25, 0x00	; 0
    2058:	72 d1       	rcall	.+740    	; 0x233e <fputc>
    205a:	a1 10       	cpse	r10, r1
    205c:	f6 cf       	rjmp	.-20     	; 0x204a <vfprintf+0x34e>
    205e:	33 20       	and	r3, r3
    2060:	09 f4       	brne	.+2      	; 0x2064 <vfprintf+0x368>
    2062:	5d ce       	rjmp	.-838    	; 0x1d1e <vfprintf+0x22>
    2064:	b7 01       	movw	r22, r14
    2066:	80 e2       	ldi	r24, 0x20	; 32
    2068:	90 e0       	ldi	r25, 0x00	; 0
    206a:	69 d1       	rcall	.+722    	; 0x233e <fputc>
    206c:	3a 94       	dec	r3
    206e:	f7 cf       	rjmp	.-18     	; 0x205e <vfprintf+0x362>
    2070:	f7 01       	movw	r30, r14
    2072:	86 81       	ldd	r24, Z+6	; 0x06
    2074:	97 81       	ldd	r25, Z+7	; 0x07
    2076:	02 c0       	rjmp	.+4      	; 0x207c <vfprintf+0x380>
    2078:	8f ef       	ldi	r24, 0xFF	; 255
    207a:	9f ef       	ldi	r25, 0xFF	; 255
    207c:	2c 96       	adiw	r28, 0x0c	; 12
    207e:	e2 e1       	ldi	r30, 0x12	; 18
    2080:	0a c2       	rjmp	.+1044   	; 0x2496 <__epilogue_restores__>

00002082 <calloc>:
    2082:	0f 93       	push	r16
    2084:	1f 93       	push	r17
    2086:	cf 93       	push	r28
    2088:	df 93       	push	r29
    208a:	86 9f       	mul	r24, r22
    208c:	80 01       	movw	r16, r0
    208e:	87 9f       	mul	r24, r23
    2090:	10 0d       	add	r17, r0
    2092:	96 9f       	mul	r25, r22
    2094:	10 0d       	add	r17, r0
    2096:	11 24       	eor	r1, r1
    2098:	c8 01       	movw	r24, r16
    209a:	0d d0       	rcall	.+26     	; 0x20b6 <malloc>
    209c:	ec 01       	movw	r28, r24
    209e:	00 97       	sbiw	r24, 0x00	; 0
    20a0:	21 f0       	breq	.+8      	; 0x20aa <calloc+0x28>
    20a2:	a8 01       	movw	r20, r16
    20a4:	60 e0       	ldi	r22, 0x00	; 0
    20a6:	70 e0       	ldi	r23, 0x00	; 0
    20a8:	38 d1       	rcall	.+624    	; 0x231a <memset>
    20aa:	ce 01       	movw	r24, r28
    20ac:	df 91       	pop	r29
    20ae:	cf 91       	pop	r28
    20b0:	1f 91       	pop	r17
    20b2:	0f 91       	pop	r16
    20b4:	08 95       	ret

000020b6 <malloc>:
    20b6:	cf 93       	push	r28
    20b8:	df 93       	push	r29
    20ba:	82 30       	cpi	r24, 0x02	; 2
    20bc:	91 05       	cpc	r25, r1
    20be:	10 f4       	brcc	.+4      	; 0x20c4 <malloc+0xe>
    20c0:	82 e0       	ldi	r24, 0x02	; 2
    20c2:	90 e0       	ldi	r25, 0x00	; 0
    20c4:	e0 91 f2 02 	lds	r30, 0x02F2
    20c8:	f0 91 f3 02 	lds	r31, 0x02F3
    20cc:	20 e0       	ldi	r18, 0x00	; 0
    20ce:	30 e0       	ldi	r19, 0x00	; 0
    20d0:	a0 e0       	ldi	r26, 0x00	; 0
    20d2:	b0 e0       	ldi	r27, 0x00	; 0
    20d4:	30 97       	sbiw	r30, 0x00	; 0
    20d6:	39 f1       	breq	.+78     	; 0x2126 <malloc+0x70>
    20d8:	40 81       	ld	r20, Z
    20da:	51 81       	ldd	r21, Z+1	; 0x01
    20dc:	48 17       	cp	r20, r24
    20de:	59 07       	cpc	r21, r25
    20e0:	b8 f0       	brcs	.+46     	; 0x2110 <malloc+0x5a>
    20e2:	48 17       	cp	r20, r24
    20e4:	59 07       	cpc	r21, r25
    20e6:	71 f4       	brne	.+28     	; 0x2104 <malloc+0x4e>
    20e8:	82 81       	ldd	r24, Z+2	; 0x02
    20ea:	93 81       	ldd	r25, Z+3	; 0x03
    20ec:	10 97       	sbiw	r26, 0x00	; 0
    20ee:	29 f0       	breq	.+10     	; 0x20fa <malloc+0x44>
    20f0:	13 96       	adiw	r26, 0x03	; 3
    20f2:	9c 93       	st	X, r25
    20f4:	8e 93       	st	-X, r24
    20f6:	12 97       	sbiw	r26, 0x02	; 2
    20f8:	2c c0       	rjmp	.+88     	; 0x2152 <malloc+0x9c>
    20fa:	90 93 f3 02 	sts	0x02F3, r25
    20fe:	80 93 f2 02 	sts	0x02F2, r24
    2102:	27 c0       	rjmp	.+78     	; 0x2152 <malloc+0x9c>
    2104:	21 15       	cp	r18, r1
    2106:	31 05       	cpc	r19, r1
    2108:	31 f0       	breq	.+12     	; 0x2116 <malloc+0x60>
    210a:	42 17       	cp	r20, r18
    210c:	53 07       	cpc	r21, r19
    210e:	18 f0       	brcs	.+6      	; 0x2116 <malloc+0x60>
    2110:	a9 01       	movw	r20, r18
    2112:	db 01       	movw	r26, r22
    2114:	01 c0       	rjmp	.+2      	; 0x2118 <malloc+0x62>
    2116:	ef 01       	movw	r28, r30
    2118:	9a 01       	movw	r18, r20
    211a:	bd 01       	movw	r22, r26
    211c:	df 01       	movw	r26, r30
    211e:	02 80       	ldd	r0, Z+2	; 0x02
    2120:	f3 81       	ldd	r31, Z+3	; 0x03
    2122:	e0 2d       	mov	r30, r0
    2124:	d7 cf       	rjmp	.-82     	; 0x20d4 <malloc+0x1e>
    2126:	21 15       	cp	r18, r1
    2128:	31 05       	cpc	r19, r1
    212a:	f9 f0       	breq	.+62     	; 0x216a <malloc+0xb4>
    212c:	28 1b       	sub	r18, r24
    212e:	39 0b       	sbc	r19, r25
    2130:	24 30       	cpi	r18, 0x04	; 4
    2132:	31 05       	cpc	r19, r1
    2134:	80 f4       	brcc	.+32     	; 0x2156 <malloc+0xa0>
    2136:	8a 81       	ldd	r24, Y+2	; 0x02
    2138:	9b 81       	ldd	r25, Y+3	; 0x03
    213a:	61 15       	cp	r22, r1
    213c:	71 05       	cpc	r23, r1
    213e:	21 f0       	breq	.+8      	; 0x2148 <malloc+0x92>
    2140:	fb 01       	movw	r30, r22
    2142:	93 83       	std	Z+3, r25	; 0x03
    2144:	82 83       	std	Z+2, r24	; 0x02
    2146:	04 c0       	rjmp	.+8      	; 0x2150 <malloc+0x9a>
    2148:	90 93 f3 02 	sts	0x02F3, r25
    214c:	80 93 f2 02 	sts	0x02F2, r24
    2150:	fe 01       	movw	r30, r28
    2152:	32 96       	adiw	r30, 0x02	; 2
    2154:	44 c0       	rjmp	.+136    	; 0x21de <malloc+0x128>
    2156:	fe 01       	movw	r30, r28
    2158:	e2 0f       	add	r30, r18
    215a:	f3 1f       	adc	r31, r19
    215c:	81 93       	st	Z+, r24
    215e:	91 93       	st	Z+, r25
    2160:	22 50       	subi	r18, 0x02	; 2
    2162:	31 09       	sbc	r19, r1
    2164:	39 83       	std	Y+1, r19	; 0x01
    2166:	28 83       	st	Y, r18
    2168:	3a c0       	rjmp	.+116    	; 0x21de <malloc+0x128>
    216a:	20 91 f0 02 	lds	r18, 0x02F0
    216e:	30 91 f1 02 	lds	r19, 0x02F1
    2172:	23 2b       	or	r18, r19
    2174:	41 f4       	brne	.+16     	; 0x2186 <malloc+0xd0>
    2176:	20 91 02 01 	lds	r18, 0x0102
    217a:	30 91 03 01 	lds	r19, 0x0103
    217e:	30 93 f1 02 	sts	0x02F1, r19
    2182:	20 93 f0 02 	sts	0x02F0, r18
    2186:	20 91 00 01 	lds	r18, 0x0100
    218a:	30 91 01 01 	lds	r19, 0x0101
    218e:	21 15       	cp	r18, r1
    2190:	31 05       	cpc	r19, r1
    2192:	41 f4       	brne	.+16     	; 0x21a4 <malloc+0xee>
    2194:	2d b7       	in	r18, 0x3d	; 61
    2196:	3e b7       	in	r19, 0x3e	; 62
    2198:	40 91 04 01 	lds	r20, 0x0104
    219c:	50 91 05 01 	lds	r21, 0x0105
    21a0:	24 1b       	sub	r18, r20
    21a2:	35 0b       	sbc	r19, r21
    21a4:	e0 91 f0 02 	lds	r30, 0x02F0
    21a8:	f0 91 f1 02 	lds	r31, 0x02F1
    21ac:	e2 17       	cp	r30, r18
    21ae:	f3 07       	cpc	r31, r19
    21b0:	a0 f4       	brcc	.+40     	; 0x21da <malloc+0x124>
    21b2:	2e 1b       	sub	r18, r30
    21b4:	3f 0b       	sbc	r19, r31
    21b6:	28 17       	cp	r18, r24
    21b8:	39 07       	cpc	r19, r25
    21ba:	78 f0       	brcs	.+30     	; 0x21da <malloc+0x124>
    21bc:	ac 01       	movw	r20, r24
    21be:	4e 5f       	subi	r20, 0xFE	; 254
    21c0:	5f 4f       	sbci	r21, 0xFF	; 255
    21c2:	24 17       	cp	r18, r20
    21c4:	35 07       	cpc	r19, r21
    21c6:	48 f0       	brcs	.+18     	; 0x21da <malloc+0x124>
    21c8:	4e 0f       	add	r20, r30
    21ca:	5f 1f       	adc	r21, r31
    21cc:	50 93 f1 02 	sts	0x02F1, r21
    21d0:	40 93 f0 02 	sts	0x02F0, r20
    21d4:	81 93       	st	Z+, r24
    21d6:	91 93       	st	Z+, r25
    21d8:	02 c0       	rjmp	.+4      	; 0x21de <malloc+0x128>
    21da:	e0 e0       	ldi	r30, 0x00	; 0
    21dc:	f0 e0       	ldi	r31, 0x00	; 0
    21de:	cf 01       	movw	r24, r30
    21e0:	df 91       	pop	r29
    21e2:	cf 91       	pop	r28
    21e4:	08 95       	ret

000021e6 <free>:
    21e6:	cf 93       	push	r28
    21e8:	df 93       	push	r29
    21ea:	00 97       	sbiw	r24, 0x00	; 0
    21ec:	09 f4       	brne	.+2      	; 0x21f0 <free+0xa>
    21ee:	87 c0       	rjmp	.+270    	; 0x22fe <free+0x118>
    21f0:	fc 01       	movw	r30, r24
    21f2:	32 97       	sbiw	r30, 0x02	; 2
    21f4:	13 82       	std	Z+3, r1	; 0x03
    21f6:	12 82       	std	Z+2, r1	; 0x02
    21f8:	c0 91 f2 02 	lds	r28, 0x02F2
    21fc:	d0 91 f3 02 	lds	r29, 0x02F3
    2200:	20 97       	sbiw	r28, 0x00	; 0
    2202:	81 f4       	brne	.+32     	; 0x2224 <free+0x3e>
    2204:	20 81       	ld	r18, Z
    2206:	31 81       	ldd	r19, Z+1	; 0x01
    2208:	28 0f       	add	r18, r24
    220a:	39 1f       	adc	r19, r25
    220c:	80 91 f0 02 	lds	r24, 0x02F0
    2210:	90 91 f1 02 	lds	r25, 0x02F1
    2214:	82 17       	cp	r24, r18
    2216:	93 07       	cpc	r25, r19
    2218:	79 f5       	brne	.+94     	; 0x2278 <free+0x92>
    221a:	f0 93 f1 02 	sts	0x02F1, r31
    221e:	e0 93 f0 02 	sts	0x02F0, r30
    2222:	6d c0       	rjmp	.+218    	; 0x22fe <free+0x118>
    2224:	de 01       	movw	r26, r28
    2226:	20 e0       	ldi	r18, 0x00	; 0
    2228:	30 e0       	ldi	r19, 0x00	; 0
    222a:	ae 17       	cp	r26, r30
    222c:	bf 07       	cpc	r27, r31
    222e:	50 f4       	brcc	.+20     	; 0x2244 <free+0x5e>
    2230:	12 96       	adiw	r26, 0x02	; 2
    2232:	4d 91       	ld	r20, X+
    2234:	5c 91       	ld	r21, X
    2236:	13 97       	sbiw	r26, 0x03	; 3
    2238:	9d 01       	movw	r18, r26
    223a:	41 15       	cp	r20, r1
    223c:	51 05       	cpc	r21, r1
    223e:	09 f1       	breq	.+66     	; 0x2282 <free+0x9c>
    2240:	da 01       	movw	r26, r20
    2242:	f3 cf       	rjmp	.-26     	; 0x222a <free+0x44>
    2244:	b3 83       	std	Z+3, r27	; 0x03
    2246:	a2 83       	std	Z+2, r26	; 0x02
    2248:	40 81       	ld	r20, Z
    224a:	51 81       	ldd	r21, Z+1	; 0x01
    224c:	84 0f       	add	r24, r20
    224e:	95 1f       	adc	r25, r21
    2250:	8a 17       	cp	r24, r26
    2252:	9b 07       	cpc	r25, r27
    2254:	71 f4       	brne	.+28     	; 0x2272 <free+0x8c>
    2256:	8d 91       	ld	r24, X+
    2258:	9c 91       	ld	r25, X
    225a:	11 97       	sbiw	r26, 0x01	; 1
    225c:	84 0f       	add	r24, r20
    225e:	95 1f       	adc	r25, r21
    2260:	02 96       	adiw	r24, 0x02	; 2
    2262:	91 83       	std	Z+1, r25	; 0x01
    2264:	80 83       	st	Z, r24
    2266:	12 96       	adiw	r26, 0x02	; 2
    2268:	8d 91       	ld	r24, X+
    226a:	9c 91       	ld	r25, X
    226c:	13 97       	sbiw	r26, 0x03	; 3
    226e:	93 83       	std	Z+3, r25	; 0x03
    2270:	82 83       	std	Z+2, r24	; 0x02
    2272:	21 15       	cp	r18, r1
    2274:	31 05       	cpc	r19, r1
    2276:	29 f4       	brne	.+10     	; 0x2282 <free+0x9c>
    2278:	f0 93 f3 02 	sts	0x02F3, r31
    227c:	e0 93 f2 02 	sts	0x02F2, r30
    2280:	3e c0       	rjmp	.+124    	; 0x22fe <free+0x118>
    2282:	d9 01       	movw	r26, r18
    2284:	13 96       	adiw	r26, 0x03	; 3
    2286:	fc 93       	st	X, r31
    2288:	ee 93       	st	-X, r30
    228a:	12 97       	sbiw	r26, 0x02	; 2
    228c:	4d 91       	ld	r20, X+
    228e:	5d 91       	ld	r21, X+
    2290:	a4 0f       	add	r26, r20
    2292:	b5 1f       	adc	r27, r21
    2294:	ea 17       	cp	r30, r26
    2296:	fb 07       	cpc	r31, r27
    2298:	79 f4       	brne	.+30     	; 0x22b8 <free+0xd2>
    229a:	80 81       	ld	r24, Z
    229c:	91 81       	ldd	r25, Z+1	; 0x01
    229e:	84 0f       	add	r24, r20
    22a0:	95 1f       	adc	r25, r21
    22a2:	02 96       	adiw	r24, 0x02	; 2
    22a4:	d9 01       	movw	r26, r18
    22a6:	11 96       	adiw	r26, 0x01	; 1
    22a8:	9c 93       	st	X, r25
    22aa:	8e 93       	st	-X, r24
    22ac:	82 81       	ldd	r24, Z+2	; 0x02
    22ae:	93 81       	ldd	r25, Z+3	; 0x03
    22b0:	13 96       	adiw	r26, 0x03	; 3
    22b2:	9c 93       	st	X, r25
    22b4:	8e 93       	st	-X, r24
    22b6:	12 97       	sbiw	r26, 0x02	; 2
    22b8:	e0 e0       	ldi	r30, 0x00	; 0
    22ba:	f0 e0       	ldi	r31, 0x00	; 0
    22bc:	8a 81       	ldd	r24, Y+2	; 0x02
    22be:	9b 81       	ldd	r25, Y+3	; 0x03
    22c0:	00 97       	sbiw	r24, 0x00	; 0
    22c2:	19 f0       	breq	.+6      	; 0x22ca <free+0xe4>
    22c4:	fe 01       	movw	r30, r28
    22c6:	ec 01       	movw	r28, r24
    22c8:	f9 cf       	rjmp	.-14     	; 0x22bc <free+0xd6>
    22ca:	ce 01       	movw	r24, r28
    22cc:	02 96       	adiw	r24, 0x02	; 2
    22ce:	28 81       	ld	r18, Y
    22d0:	39 81       	ldd	r19, Y+1	; 0x01
    22d2:	82 0f       	add	r24, r18
    22d4:	93 1f       	adc	r25, r19
    22d6:	20 91 f0 02 	lds	r18, 0x02F0
    22da:	30 91 f1 02 	lds	r19, 0x02F1
    22de:	28 17       	cp	r18, r24
    22e0:	39 07       	cpc	r19, r25
    22e2:	69 f4       	brne	.+26     	; 0x22fe <free+0x118>
    22e4:	30 97       	sbiw	r30, 0x00	; 0
    22e6:	29 f4       	brne	.+10     	; 0x22f2 <free+0x10c>
    22e8:	10 92 f3 02 	sts	0x02F3, r1
    22ec:	10 92 f2 02 	sts	0x02F2, r1
    22f0:	02 c0       	rjmp	.+4      	; 0x22f6 <free+0x110>
    22f2:	13 82       	std	Z+3, r1	; 0x03
    22f4:	12 82       	std	Z+2, r1	; 0x02
    22f6:	d0 93 f1 02 	sts	0x02F1, r29
    22fa:	c0 93 f0 02 	sts	0x02F0, r28
    22fe:	df 91       	pop	r29
    2300:	cf 91       	pop	r28
    2302:	08 95       	ret

00002304 <strnlen_P>:
    2304:	fc 01       	movw	r30, r24
    2306:	05 90       	lpm	r0, Z+
    2308:	61 50       	subi	r22, 0x01	; 1
    230a:	70 40       	sbci	r23, 0x00	; 0
    230c:	01 10       	cpse	r0, r1
    230e:	d8 f7       	brcc	.-10     	; 0x2306 <strnlen_P+0x2>
    2310:	80 95       	com	r24
    2312:	90 95       	com	r25
    2314:	8e 0f       	add	r24, r30
    2316:	9f 1f       	adc	r25, r31
    2318:	08 95       	ret

0000231a <memset>:
    231a:	dc 01       	movw	r26, r24
    231c:	01 c0       	rjmp	.+2      	; 0x2320 <memset+0x6>
    231e:	6d 93       	st	X+, r22
    2320:	41 50       	subi	r20, 0x01	; 1
    2322:	50 40       	sbci	r21, 0x00	; 0
    2324:	e0 f7       	brcc	.-8      	; 0x231e <memset+0x4>
    2326:	08 95       	ret

00002328 <strnlen>:
    2328:	fc 01       	movw	r30, r24
    232a:	61 50       	subi	r22, 0x01	; 1
    232c:	70 40       	sbci	r23, 0x00	; 0
    232e:	01 90       	ld	r0, Z+
    2330:	01 10       	cpse	r0, r1
    2332:	d8 f7       	brcc	.-10     	; 0x232a <strnlen+0x2>
    2334:	80 95       	com	r24
    2336:	90 95       	com	r25
    2338:	8e 0f       	add	r24, r30
    233a:	9f 1f       	adc	r25, r31
    233c:	08 95       	ret

0000233e <fputc>:
    233e:	0f 93       	push	r16
    2340:	1f 93       	push	r17
    2342:	cf 93       	push	r28
    2344:	df 93       	push	r29
    2346:	18 2f       	mov	r17, r24
    2348:	09 2f       	mov	r16, r25
    234a:	eb 01       	movw	r28, r22
    234c:	8b 81       	ldd	r24, Y+3	; 0x03
    234e:	81 fd       	sbrc	r24, 1
    2350:	03 c0       	rjmp	.+6      	; 0x2358 <fputc+0x1a>
    2352:	8f ef       	ldi	r24, 0xFF	; 255
    2354:	9f ef       	ldi	r25, 0xFF	; 255
    2356:	20 c0       	rjmp	.+64     	; 0x2398 <fputc+0x5a>
    2358:	82 ff       	sbrs	r24, 2
    235a:	10 c0       	rjmp	.+32     	; 0x237c <fputc+0x3e>
    235c:	4e 81       	ldd	r20, Y+6	; 0x06
    235e:	5f 81       	ldd	r21, Y+7	; 0x07
    2360:	2c 81       	ldd	r18, Y+4	; 0x04
    2362:	3d 81       	ldd	r19, Y+5	; 0x05
    2364:	42 17       	cp	r20, r18
    2366:	53 07       	cpc	r21, r19
    2368:	7c f4       	brge	.+30     	; 0x2388 <fputc+0x4a>
    236a:	e8 81       	ld	r30, Y
    236c:	f9 81       	ldd	r31, Y+1	; 0x01
    236e:	9f 01       	movw	r18, r30
    2370:	2f 5f       	subi	r18, 0xFF	; 255
    2372:	3f 4f       	sbci	r19, 0xFF	; 255
    2374:	39 83       	std	Y+1, r19	; 0x01
    2376:	28 83       	st	Y, r18
    2378:	10 83       	st	Z, r17
    237a:	06 c0       	rjmp	.+12     	; 0x2388 <fputc+0x4a>
    237c:	e8 85       	ldd	r30, Y+8	; 0x08
    237e:	f9 85       	ldd	r31, Y+9	; 0x09
    2380:	81 2f       	mov	r24, r17
    2382:	09 95       	icall
    2384:	89 2b       	or	r24, r25
    2386:	29 f7       	brne	.-54     	; 0x2352 <fputc+0x14>
    2388:	2e 81       	ldd	r18, Y+6	; 0x06
    238a:	3f 81       	ldd	r19, Y+7	; 0x07
    238c:	2f 5f       	subi	r18, 0xFF	; 255
    238e:	3f 4f       	sbci	r19, 0xFF	; 255
    2390:	3f 83       	std	Y+7, r19	; 0x07
    2392:	2e 83       	std	Y+6, r18	; 0x06
    2394:	81 2f       	mov	r24, r17
    2396:	90 2f       	mov	r25, r16
    2398:	df 91       	pop	r29
    239a:	cf 91       	pop	r28
    239c:	1f 91       	pop	r17
    239e:	0f 91       	pop	r16
    23a0:	08 95       	ret

000023a2 <__ultoa_invert>:
    23a2:	fa 01       	movw	r30, r20
    23a4:	aa 27       	eor	r26, r26
    23a6:	28 30       	cpi	r18, 0x08	; 8
    23a8:	51 f1       	breq	.+84     	; 0x23fe <__ultoa_invert+0x5c>
    23aa:	20 31       	cpi	r18, 0x10	; 16
    23ac:	81 f1       	breq	.+96     	; 0x240e <__ultoa_invert+0x6c>
    23ae:	e8 94       	clt
    23b0:	6f 93       	push	r22
    23b2:	6e 7f       	andi	r22, 0xFE	; 254
    23b4:	6e 5f       	subi	r22, 0xFE	; 254
    23b6:	7f 4f       	sbci	r23, 0xFF	; 255
    23b8:	8f 4f       	sbci	r24, 0xFF	; 255
    23ba:	9f 4f       	sbci	r25, 0xFF	; 255
    23bc:	af 4f       	sbci	r26, 0xFF	; 255
    23be:	b1 e0       	ldi	r27, 0x01	; 1
    23c0:	3e d0       	rcall	.+124    	; 0x243e <__ultoa_invert+0x9c>
    23c2:	b4 e0       	ldi	r27, 0x04	; 4
    23c4:	3c d0       	rcall	.+120    	; 0x243e <__ultoa_invert+0x9c>
    23c6:	67 0f       	add	r22, r23
    23c8:	78 1f       	adc	r23, r24
    23ca:	89 1f       	adc	r24, r25
    23cc:	9a 1f       	adc	r25, r26
    23ce:	a1 1d       	adc	r26, r1
    23d0:	68 0f       	add	r22, r24
    23d2:	79 1f       	adc	r23, r25
    23d4:	8a 1f       	adc	r24, r26
    23d6:	91 1d       	adc	r25, r1
    23d8:	a1 1d       	adc	r26, r1
    23da:	6a 0f       	add	r22, r26
    23dc:	71 1d       	adc	r23, r1
    23de:	81 1d       	adc	r24, r1
    23e0:	91 1d       	adc	r25, r1
    23e2:	a1 1d       	adc	r26, r1
    23e4:	20 d0       	rcall	.+64     	; 0x2426 <__ultoa_invert+0x84>
    23e6:	09 f4       	brne	.+2      	; 0x23ea <__ultoa_invert+0x48>
    23e8:	68 94       	set
    23ea:	3f 91       	pop	r19
    23ec:	2a e0       	ldi	r18, 0x0A	; 10
    23ee:	26 9f       	mul	r18, r22
    23f0:	11 24       	eor	r1, r1
    23f2:	30 19       	sub	r19, r0
    23f4:	30 5d       	subi	r19, 0xD0	; 208
    23f6:	31 93       	st	Z+, r19
    23f8:	de f6       	brtc	.-74     	; 0x23b0 <__ultoa_invert+0xe>
    23fa:	cf 01       	movw	r24, r30
    23fc:	08 95       	ret
    23fe:	46 2f       	mov	r20, r22
    2400:	47 70       	andi	r20, 0x07	; 7
    2402:	40 5d       	subi	r20, 0xD0	; 208
    2404:	41 93       	st	Z+, r20
    2406:	b3 e0       	ldi	r27, 0x03	; 3
    2408:	0f d0       	rcall	.+30     	; 0x2428 <__ultoa_invert+0x86>
    240a:	c9 f7       	brne	.-14     	; 0x23fe <__ultoa_invert+0x5c>
    240c:	f6 cf       	rjmp	.-20     	; 0x23fa <__ultoa_invert+0x58>
    240e:	46 2f       	mov	r20, r22
    2410:	4f 70       	andi	r20, 0x0F	; 15
    2412:	40 5d       	subi	r20, 0xD0	; 208
    2414:	4a 33       	cpi	r20, 0x3A	; 58
    2416:	18 f0       	brcs	.+6      	; 0x241e <__ultoa_invert+0x7c>
    2418:	49 5d       	subi	r20, 0xD9	; 217
    241a:	31 fd       	sbrc	r19, 1
    241c:	40 52       	subi	r20, 0x20	; 32
    241e:	41 93       	st	Z+, r20
    2420:	02 d0       	rcall	.+4      	; 0x2426 <__ultoa_invert+0x84>
    2422:	a9 f7       	brne	.-22     	; 0x240e <__ultoa_invert+0x6c>
    2424:	ea cf       	rjmp	.-44     	; 0x23fa <__ultoa_invert+0x58>
    2426:	b4 e0       	ldi	r27, 0x04	; 4
    2428:	a6 95       	lsr	r26
    242a:	97 95       	ror	r25
    242c:	87 95       	ror	r24
    242e:	77 95       	ror	r23
    2430:	67 95       	ror	r22
    2432:	ba 95       	dec	r27
    2434:	c9 f7       	brne	.-14     	; 0x2428 <__ultoa_invert+0x86>
    2436:	00 97       	sbiw	r24, 0x00	; 0
    2438:	61 05       	cpc	r22, r1
    243a:	71 05       	cpc	r23, r1
    243c:	08 95       	ret
    243e:	9b 01       	movw	r18, r22
    2440:	ac 01       	movw	r20, r24
    2442:	0a 2e       	mov	r0, r26
    2444:	06 94       	lsr	r0
    2446:	57 95       	ror	r21
    2448:	47 95       	ror	r20
    244a:	37 95       	ror	r19
    244c:	27 95       	ror	r18
    244e:	ba 95       	dec	r27
    2450:	c9 f7       	brne	.-14     	; 0x2444 <__ultoa_invert+0xa2>
    2452:	62 0f       	add	r22, r18
    2454:	73 1f       	adc	r23, r19
    2456:	84 1f       	adc	r24, r20
    2458:	95 1f       	adc	r25, r21
    245a:	a0 1d       	adc	r26, r0
    245c:	08 95       	ret

0000245e <__prologue_saves__>:
    245e:	2f 92       	push	r2
    2460:	3f 92       	push	r3
    2462:	4f 92       	push	r4
    2464:	5f 92       	push	r5
    2466:	6f 92       	push	r6
    2468:	7f 92       	push	r7
    246a:	8f 92       	push	r8
    246c:	9f 92       	push	r9
    246e:	af 92       	push	r10
    2470:	bf 92       	push	r11
    2472:	cf 92       	push	r12
    2474:	df 92       	push	r13
    2476:	ef 92       	push	r14
    2478:	ff 92       	push	r15
    247a:	0f 93       	push	r16
    247c:	1f 93       	push	r17
    247e:	cf 93       	push	r28
    2480:	df 93       	push	r29
    2482:	cd b7       	in	r28, 0x3d	; 61
    2484:	de b7       	in	r29, 0x3e	; 62
    2486:	ca 1b       	sub	r28, r26
    2488:	db 0b       	sbc	r29, r27
    248a:	0f b6       	in	r0, 0x3f	; 63
    248c:	f8 94       	cli
    248e:	de bf       	out	0x3e, r29	; 62
    2490:	0f be       	out	0x3f, r0	; 63
    2492:	cd bf       	out	0x3d, r28	; 61
    2494:	09 94       	ijmp

00002496 <__epilogue_restores__>:
    2496:	2a 88       	ldd	r2, Y+18	; 0x12
    2498:	39 88       	ldd	r3, Y+17	; 0x11
    249a:	48 88       	ldd	r4, Y+16	; 0x10
    249c:	5f 84       	ldd	r5, Y+15	; 0x0f
    249e:	6e 84       	ldd	r6, Y+14	; 0x0e
    24a0:	7d 84       	ldd	r7, Y+13	; 0x0d
    24a2:	8c 84       	ldd	r8, Y+12	; 0x0c
    24a4:	9b 84       	ldd	r9, Y+11	; 0x0b
    24a6:	aa 84       	ldd	r10, Y+10	; 0x0a
    24a8:	b9 84       	ldd	r11, Y+9	; 0x09
    24aa:	c8 84       	ldd	r12, Y+8	; 0x08
    24ac:	df 80       	ldd	r13, Y+7	; 0x07
    24ae:	ee 80       	ldd	r14, Y+6	; 0x06
    24b0:	fd 80       	ldd	r15, Y+5	; 0x05
    24b2:	0c 81       	ldd	r16, Y+4	; 0x04
    24b4:	1b 81       	ldd	r17, Y+3	; 0x03
    24b6:	aa 81       	ldd	r26, Y+2	; 0x02
    24b8:	b9 81       	ldd	r27, Y+1	; 0x01
    24ba:	ce 0f       	add	r28, r30
    24bc:	d1 1d       	adc	r29, r1
    24be:	0f b6       	in	r0, 0x3f	; 63
    24c0:	f8 94       	cli
    24c2:	de bf       	out	0x3e, r29	; 62
    24c4:	0f be       	out	0x3f, r0	; 63
    24c6:	cd bf       	out	0x3d, r28	; 61
    24c8:	ed 01       	movw	r28, r26
    24ca:	08 95       	ret

000024cc <_exit>:
    24cc:	f8 94       	cli

000024ce <__stop_program>:
    24ce:	ff cf       	rjmp	.-2      	; 0x24ce <__stop_program>
